
test:     file format elf32-littlearm


Disassembly of section .init:

000100d4 <_init>:
   100d4:	e1a0c00d 	mov	ip, sp
   100d8:	e92ddff0 	push	{r4, r5, r6, r7, r8, r9, sl, fp, ip, lr, pc}
   100dc:	e24cb004 	sub	fp, ip, #4
   100e0:	e91baff0 	ldmdb	fp, {r4, r5, r6, r7, r8, r9, sl, fp, sp, pc}

Disassembly of section .text:

000100f0 <__stack_chk_fail>:
   100f0:	e52de004 	.word	0xe52de004
   100f4:	e59f6104 	.word	0xe59f6104
   100f8:	e24dd02c 	.word	0xe24dd02c
   100fc:	e3e03020 	.word	0xe3e03020
   10100:	e28d1028 	.word	0xe28d1028
   10104:	e3a02000 	.word	0xe3a02000
   10108:	e521301c 	.word	0xe521301c
   1010c:	e3e05000 	.word	0xe3e05000
   10110:	e1a00002 	.word	0xe1a00002
   10114:	e58d5010 	.word	0xe58d5010
   10118:	eb0013e7 	.word	0xeb0013e7
   1011c:	e3a02014 	.word	0xe3a02014
   10120:	e08d4002 	.word	0xe08d4002
   10124:	e3a01000 	.word	0xe3a01000
   10128:	e1a00004 	.word	0xe1a00004
   1012c:	eb0007eb 	.word	0xeb0007eb
   10130:	e1a01004 	.word	0xe1a01004
   10134:	e59f40c8 	.word	0xe59f40c8
   10138:	e3a02000 	.word	0xe3a02000
   1013c:	e3a00006 	.word	0xe3a00006
   10140:	e58d5020 	.word	0xe58d5020
   10144:	e58d5024 	.word	0xe58d5024
   10148:	eb0012b3 	.word	0xeb0012b3
   1014c:	e59f30b4 	.word	0xe59f30b4
   10150:	e08f4004 	.word	0xe08f4004
   10154:	e1a00004 	.word	0xe1a00004
   10158:	e79f5003 	.word	0xe79f5003
   1015c:	eb000807 	.word	0xeb000807
   10160:	e1a01004 	.word	0xe1a01004
   10164:	e08f6006 	.word	0xe08f6006
   10168:	e1a02000 	.word	0xe1a02000
   1016c:	e3a00002 	.word	0xe3a00002
   10170:	eb00108e 	.word	0xeb00108e
   10174:	e1a00005 	.word	0xe1a00005
   10178:	eb000800 	.word	0xeb000800
   1017c:	e1a01005 	.word	0xe1a01005
   10180:	e1a02000 	.word	0xe1a02000
   10184:	e3a00002 	.word	0xe3a00002
   10188:	eb001088 	.word	0xeb001088
   1018c:	e1a00006 	.word	0xe1a00006
   10190:	eb0007fa 	.word	0xeb0007fa
   10194:	e1a01006 	.word	0xe1a01006
   10198:	e1a02000 	.word	0xe1a02000
   1019c:	e3a00002 	.word	0xe3a00002
   101a0:	eb001082 	.word	0xeb001082
   101a4:	e59f1060 	.word	0xe59f1060
   101a8:	e3a02003 	.word	0xe3a02003
   101ac:	e08f1001 	.word	0xe08f1001
   101b0:	e3a00002 	.word	0xe3a00002
   101b4:	eb00107d 	.word	0xeb00107d
   101b8:	e59f0050 	.word	0xe59f0050
   101bc:	e3a02008 	.word	0xe3a02008
   101c0:	e3a01003 	.word	0xe3a01003
   101c4:	e08f0000 	.word	0xe08f0000
   101c8:	eb0018d5 	.word	0xeb0018d5
   101cc:	e59f1040 	.word	0xe59f1040
   101d0:	e1a03005 	.word	0xe1a03005
   101d4:	e1a02004 	.word	0xe1a02004
   101d8:	e08f1001 	.word	0xe08f1001
   101dc:	e3a00006 	.word	0xe3a00006
   101e0:	e58d6000 	.word	0xe58d6000
   101e4:	eb0019f5 	.word	0xeb0019f5
   101e8:	eb0019fe 	.word	0xeb0019fe
   101ec:	eb002b31 	.word	0xeb002b31
   101f0:	e3a01006 	.word	0xe3a01006
   101f4:	eb002c80 	.word	0xeb002c80
   101f8:	e3a0007f 	.word	0xe3a0007f
   101fc:	eb0012b7 	.word	0xeb0012b7
   10200:	0000e6ca 	.word	0x0000e6ca
   10204:	0000e6ea 	.word	0x0000e6ea
   10208:	0005e64c 	.word	0x0005e64c
   1020c:	0000e671 	.word	0x0000e671
   10210:	0000e65d 	.word	0x0000e65d
   10214:	0000e64d 	.word	0x0000e64d

00010218 <_start>:
   10218:	e3a0b000 	.word	0xe3a0b000
   1021c:	e3a0e000 	.word	0xe3a0e000
   10220:	e49d1004 	.word	0xe49d1004
   10224:	e1a0200d 	.word	0xe1a0200d
   10228:	e52d2004 	.word	0xe52d2004
   1022c:	e52d0004 	.word	0xe52d0004
   10230:	e59fc010 	.word	0xe59fc010
   10234:	e52dc004 	.word	0xe52dc004
   10238:	e59f000c 	.word	0xe59f000c
   1023c:	e59f300c 	.word	0xe59f300c
   10240:	ea001169 	.word	0xea001169
   10244:	eb000cd4 	.word	0xeb000cd4
   10248:	0001e644 	.word	0x0001e644
   1024c:	0001035c 	.word	0x0001035c
   10250:	000100d4 	.word	0x000100d4

00010254 <deregister_tm_clones>:
   10254:	e59f301c 	ldr	r3, [pc, #28]	; 10278 <deregister_tm_clones+0x24>
   10258:	e59f001c 	ldr	r0, [pc, #28]	; 1027c <deregister_tm_clones+0x28>
   1025c:	e0603003 	rsb	r3, r0, r3
   10260:	e3530006 	cmp	r3, #6
   10264:	912fff1e 	bxls	lr
   10268:	e59f3010 	ldr	r3, [pc, #16]	; 10280 <deregister_tm_clones+0x2c>
   1026c:	e3530000 	cmp	r3, #0
   10270:	012fff1e 	bxeq	lr
   10274:	e12fff13 	bx	r3
   10278:	0006e827 	.word	0x0006e827
   1027c:	0006e824 	.word	0x0006e824
   10280:	00000000 	.word	0x00000000

00010284 <register_tm_clones>:
   10284:	e59f1024 	ldr	r1, [pc, #36]	; 102b0 <register_tm_clones+0x2c>
   10288:	e59f0024 	ldr	r0, [pc, #36]	; 102b4 <register_tm_clones+0x30>
   1028c:	e0601001 	rsb	r1, r0, r1
   10290:	e1a01141 	asr	r1, r1, #2
   10294:	e0811fa1 	add	r1, r1, r1, lsr #31
   10298:	e1b010c1 	asrs	r1, r1, #1
   1029c:	012fff1e 	bxeq	lr
   102a0:	e59f3010 	ldr	r3, [pc, #16]	; 102b8 <register_tm_clones+0x34>
   102a4:	e3530000 	cmp	r3, #0
   102a8:	012fff1e 	bxeq	lr
   102ac:	e12fff13 	bx	r3
   102b0:	0006e824 	.word	0x0006e824
   102b4:	0006e824 	.word	0x0006e824
   102b8:	00000000 	.word	0x00000000

000102bc <__do_global_dtors_aux>:
   102bc:	e92d4010 	push	{r4, lr}
   102c0:	e59f402c 	ldr	r4, [pc, #44]	; 102f4 <__do_global_dtors_aux+0x38>
   102c4:	e5d43000 	ldrb	r3, [r4]
   102c8:	e3530000 	cmp	r3, #0
   102cc:	18bd8010 	popne	{r4, pc}
   102d0:	ebffffdf 	bl	10254 <deregister_tm_clones>
   102d4:	e59f301c 	ldr	r3, [pc, #28]	; 102f8 <__do_global_dtors_aux+0x3c>
   102d8:	e3530000 	cmp	r3, #0
   102dc:	0a000001 	beq	102e8 <__do_global_dtors_aux+0x2c>
   102e0:	e59f0014 	ldr	r0, [pc, #20]	; 102fc <__do_global_dtors_aux+0x40>
   102e4:	e1a00000 	nop			; (mov r0, r0)
   102e8:	e3a03001 	mov	r3, #1
   102ec:	e5c43000 	strb	r3, [r4]
   102f0:	e8bd8010 	pop	{r4, pc}
   102f4:	0006e824 	.word	0x0006e824
   102f8:	00000000 	.word	0x00000000
   102fc:	0005e588 	.word	0x0005e588

00010300 <frame_dummy>:
   10300:	e59f3040 	ldr	r3, [pc, #64]	; 10348 <frame_dummy+0x48>
   10304:	e92d4010 	push	{r4, lr}
   10308:	e3530000 	cmp	r3, #0
   1030c:	0a000002 	beq	1031c <frame_dummy+0x1c>
   10310:	e59f1034 	ldr	r1, [pc, #52]	; 1034c <frame_dummy+0x4c>
   10314:	e59f0034 	ldr	r0, [pc, #52]	; 10350 <frame_dummy+0x50>
   10318:	e1a00000 	nop			; (mov r0, r0)
   1031c:	e59f0030 	ldr	r0, [pc, #48]	; 10354 <frame_dummy+0x54>
   10320:	e5903000 	ldr	r3, [r0]
   10324:	e3530000 	cmp	r3, #0
   10328:	1a000001 	bne	10334 <frame_dummy+0x34>
   1032c:	e8bd4010 	pop	{r4, lr}
   10330:	eaffffd3 	b	10284 <register_tm_clones>
   10334:	e59f301c 	ldr	r3, [pc, #28]	; 10358 <frame_dummy+0x58>
   10338:	e3530000 	cmp	r3, #0
   1033c:	0afffffa 	beq	1032c <frame_dummy+0x2c>
   10340:	e12fff33 	blx	r3
   10344:	eafffff8 	b	1032c <frame_dummy+0x2c>
   10348:	00000000 	.word	0x00000000
   1034c:	0006e828 	.word	0x0006e828
   10350:	0005e588 	.word	0x0005e588
   10354:	0006e594 	.word	0x0006e594
   10358:	00000000 	.word	0x00000000

0001035c <main>:
   1035c:	e92d4800 	push	{fp, lr}
   10360:	e28db004 	add	fp, sp, #4
   10364:	e24dd008 	sub	sp, sp, #8
   10368:	e3a03000 	mov	r3, #0
   1036c:	e50b3008 	str	r3, [fp, #-8]
   10370:	e3a00b01 	mov	r0, #1024	; 0x400
   10374:	eb000095 	bl	105d0 <__wrap_malloc>
   10378:	e1a03000 	mov	r3, r0
   1037c:	e50b3008 	str	r3, [fp, #-8]
   10380:	e51b1008 	ldr	r1, [fp, #-8]
   10384:	e59f0024 	ldr	r0, [pc, #36]	; 103b0 <main+0x54>
   10388:	eb000167 	bl	1092c <__GI_printf>
   1038c:	e51b1008 	ldr	r1, [fp, #-8]
   10390:	e59f001c 	ldr	r0, [pc, #28]	; 103b4 <main+0x58>
   10394:	eb000164 	bl	1092c <__GI_printf>
   10398:	e3a0000a 	mov	r0, #10
   1039c:	eb000f82 	bl	141ac <__GI_sleep>
   103a0:	e3a03000 	mov	r3, #0
   103a4:	e1a00003 	mov	r0, r3
   103a8:	e24bd004 	sub	sp, fp, #4
   103ac:	e8bd8800 	pop	{fp, pc}
   103b0:	0001e658 	.word	0x0001e658
   103b4:	0001e668 	.word	0x0001e668

000103b8 <initListHead>:
   103b8:	e92d4800 	push	{fp, lr}
   103bc:	e28db004 	add	fp, sp, #4
   103c0:	e59f3070 	ldr	r3, [pc, #112]	; 10438 <initListHead+0x80>
   103c4:	e5933000 	ldr	r3, [r3]
   103c8:	e3530000 	cmp	r3, #0
   103cc:	1a000015 	bne	10428 <initListHead+0x70>
   103d0:	e59f3060 	ldr	r3, [pc, #96]	; 10438 <initListHead+0x80>
   103d4:	e59f2060 	ldr	r2, [pc, #96]	; 1043c <initListHead+0x84>
   103d8:	e5832000 	str	r2, [r3]
   103dc:	e59f3054 	ldr	r3, [pc, #84]	; 10438 <initListHead+0x80>
   103e0:	e5933000 	ldr	r3, [r3]
   103e4:	e3a02010 	mov	r2, #16
   103e8:	e3a01000 	mov	r1, #0
   103ec:	e1a00003 	mov	r0, r3
   103f0:	eb00073a 	bl	120e0 <__GI_memset>
   103f4:	e59f303c 	ldr	r3, [pc, #60]	; 10438 <initListHead+0x80>
   103f8:	e5933000 	ldr	r3, [r3]
   103fc:	e3a02000 	mov	r2, #0
   10400:	e5832000 	str	r2, [r3]
   10404:	e59f302c 	ldr	r3, [pc, #44]	; 10438 <initListHead+0x80>
   10408:	e5933000 	ldr	r3, [r3]
   1040c:	e59f2024 	ldr	r2, [pc, #36]	; 10438 <initListHead+0x80>
   10410:	e5922000 	ldr	r2, [r2]
   10414:	e5832004 	str	r2, [r3, #4]
   10418:	e59f3018 	ldr	r3, [pc, #24]	; 10438 <initListHead+0x80>
   1041c:	e5933000 	ldr	r3, [r3]
   10420:	e59f2018 	ldr	r2, [pc, #24]	; 10440 <initListHead+0x88>
   10424:	e5823000 	str	r3, [r2]
   10428:	e59f3008 	ldr	r3, [pc, #8]	; 10438 <initListHead+0x80>
   1042c:	e5933000 	ldr	r3, [r3]
   10430:	e1a00003 	mov	r0, r3
   10434:	e8bd8800 	pop	{fp, pc}
   10438:	0006e850 	.word	0x0006e850
   1043c:	0006e840 	.word	0x0006e840
   10440:	0006e854 	.word	0x0006e854

00010444 <addAllocNode>:
   10444:	e92d4800 	push	{fp, lr}
   10448:	e28db004 	add	fp, sp, #4
   1044c:	e24dd008 	sub	sp, sp, #8
   10450:	e50b0008 	str	r0, [fp, #-8]
   10454:	e59f3048 	ldr	r3, [pc, #72]	; 104a4 <addAllocNode+0x60>
   10458:	e5933000 	ldr	r3, [r3]
   1045c:	e3530000 	cmp	r3, #0
   10460:	1a000000 	bne	10468 <addAllocNode+0x24>
   10464:	ebffffd3 	bl	103b8 <initListHead>
   10468:	e59f3034 	ldr	r3, [pc, #52]	; 104a4 <addAllocNode+0x60>
   1046c:	e5932000 	ldr	r2, [r3]
   10470:	e51b3008 	ldr	r3, [fp, #-8]
   10474:	e5832004 	str	r2, [r3, #4]
   10478:	e59f3024 	ldr	r3, [pc, #36]	; 104a4 <addAllocNode+0x60>
   1047c:	e5933000 	ldr	r3, [r3]
   10480:	e51b2008 	ldr	r2, [fp, #-8]
   10484:	e5832000 	str	r2, [r3]
   10488:	e59f2014 	ldr	r2, [pc, #20]	; 104a4 <addAllocNode+0x60>
   1048c:	e51b3008 	ldr	r3, [fp, #-8]
   10490:	e5823000 	str	r3, [r2]
   10494:	e3a03001 	mov	r3, #1
   10498:	e1a00003 	mov	r0, r3
   1049c:	e24bd004 	sub	sp, fp, #4
   104a0:	e8bd8800 	pop	{fp, pc}
   104a4:	0006e854 	.word	0x0006e854

000104a8 <delAllocNode>:
   104a8:	e52db004 	push	{fp}		; (str fp, [sp, #-4]!)
   104ac:	e28db000 	add	fp, sp, #0
   104b0:	e24dd00c 	sub	sp, sp, #12
   104b4:	e50b0008 	str	r0, [fp, #-8]
   104b8:	e59f3078 	ldr	r3, [pc, #120]	; 10538 <delAllocNode+0x90>
   104bc:	e5933000 	ldr	r3, [r3]
   104c0:	e51b2008 	ldr	r2, [fp, #-8]
   104c4:	e1520003 	cmp	r2, r3
   104c8:	1a000003 	bne	104dc <delAllocNode+0x34>
   104cc:	e51b3008 	ldr	r3, [fp, #-8]
   104d0:	e5933004 	ldr	r3, [r3, #4]
   104d4:	e59f205c 	ldr	r2, [pc, #92]	; 10538 <delAllocNode+0x90>
   104d8:	e5823000 	str	r3, [r2]
   104dc:	e51b3008 	ldr	r3, [fp, #-8]
   104e0:	e5933000 	ldr	r3, [r3]
   104e4:	e3530000 	cmp	r3, #0
   104e8:	1a000004 	bne	10500 <delAllocNode+0x58>
   104ec:	e51b3008 	ldr	r3, [fp, #-8]
   104f0:	e5933004 	ldr	r3, [r3, #4]
   104f4:	e3a02000 	mov	r2, #0
   104f8:	e5832000 	str	r2, [r3]
   104fc:	ea000009 	b	10528 <delAllocNode+0x80>
   10500:	e51b3008 	ldr	r3, [fp, #-8]
   10504:	e5933004 	ldr	r3, [r3, #4]
   10508:	e51b2008 	ldr	r2, [fp, #-8]
   1050c:	e5922000 	ldr	r2, [r2]
   10510:	e5832000 	str	r2, [r3]
   10514:	e51b3008 	ldr	r3, [fp, #-8]
   10518:	e5933000 	ldr	r3, [r3]
   1051c:	e51b2008 	ldr	r2, [fp, #-8]
   10520:	e5922004 	ldr	r2, [r2, #4]
   10524:	e5832004 	str	r2, [r3, #4]
   10528:	e1a00000 	nop			; (mov r0, r0)
   1052c:	e24bd000 	sub	sp, fp, #0
   10530:	e49db004 	pop	{fp}		; (ldr fp, [sp], #4)
   10534:	e12fff1e 	bx	lr
   10538:	0006e854 	.word	0x0006e854

0001053c <dumpList>:
   1053c:	e92d4800 	push	{fp, lr}
   10540:	e28db004 	add	fp, sp, #4
   10544:	e24dd008 	sub	sp, sp, #8
   10548:	e59f3078 	ldr	r3, [pc, #120]	; 105c8 <dumpList+0x8c>
   1054c:	e5933000 	ldr	r3, [r3]
   10550:	e3530000 	cmp	r3, #0
   10554:	1a000000 	bne	1055c <dumpList+0x20>
   10558:	ea000018 	b	105c0 <dumpList+0x84>
   1055c:	e59f3064 	ldr	r3, [pc, #100]	; 105c8 <dumpList+0x8c>
   10560:	e5933000 	ldr	r3, [r3]
   10564:	e5933000 	ldr	r3, [r3]
   10568:	e50b3008 	str	r3, [fp, #-8]
   1056c:	e3a03000 	mov	r3, #0
   10570:	e50b300c 	str	r3, [fp, #-12]
   10574:	ea00000c 	b	105ac <dumpList+0x70>
   10578:	e51b100c 	ldr	r1, [fp, #-12]
   1057c:	e2813001 	add	r3, r1, #1
   10580:	e50b300c 	str	r3, [fp, #-12]
   10584:	e51b3008 	ldr	r3, [fp, #-8]
   10588:	e5933008 	ldr	r3, [r3, #8]
   1058c:	e1a02003 	mov	r2, r3
   10590:	e51b3008 	ldr	r3, [fp, #-8]
   10594:	e593300c 	ldr	r3, [r3, #12]
   10598:	e59f002c 	ldr	r0, [pc, #44]	; 105cc <dumpList+0x90>
   1059c:	eb0000e2 	bl	1092c <__GI_printf>
   105a0:	e51b3008 	ldr	r3, [fp, #-8]
   105a4:	e5933000 	ldr	r3, [r3]
   105a8:	e50b3008 	str	r3, [fp, #-8]
   105ac:	e51b3008 	ldr	r3, [fp, #-8]
   105b0:	e3530000 	cmp	r3, #0
   105b4:	1affffef 	bne	10578 <dumpList+0x3c>
   105b8:	e3a0000a 	mov	r0, #10
   105bc:	eb0005ea 	bl	11d6c <putchar>
   105c0:	e24bd004 	sub	sp, fp, #4
   105c4:	e8bd8800 	pop	{fp, pc}
   105c8:	0006e850 	.word	0x0006e850
   105cc:	0001e674 	.word	0x0001e674

000105d0 <__wrap_malloc>:
   105d0:	e92d4800 	push	{fp, lr}
   105d4:	e28db004 	add	fp, sp, #4
   105d8:	e24dd018 	sub	sp, sp, #24
   105dc:	e50b0018 	str	r0, [fp, #-24]	; 0xffffffe8
   105e0:	e3a03000 	mov	r3, #0
   105e4:	e50b3008 	str	r3, [fp, #-8]
   105e8:	e1a0300e 	mov	r3, lr
   105ec:	e50b3008 	str	r3, [fp, #-8]
   105f0:	e3a03000 	mov	r3, #0
   105f4:	e50b300c 	str	r3, [fp, #-12]
   105f8:	e51b3018 	ldr	r3, [fp, #-24]	; 0xffffffe8
   105fc:	e3530000 	cmp	r3, #0
   10600:	1a000007 	bne	10624 <__wrap_malloc+0x54>
   10604:	e59f30a8 	ldr	r3, [pc, #168]	; 106b4 <__wrap_malloc+0xe4>
   10608:	e5930000 	ldr	r0, [r3]
   1060c:	e3a03072 	mov	r3, #114	; 0x72
   10610:	e59f20a0 	ldr	r2, [pc, #160]	; 106b8 <__wrap_malloc+0xe8>
   10614:	e59f10a0 	ldr	r1, [pc, #160]	; 106bc <__wrap_malloc+0xec>
   10618:	eb0000d4 	bl	10970 <__GI_fprintf>
   1061c:	e3a03000 	mov	r3, #0
   10620:	ea000020 	b	106a8 <__wrap_malloc+0xd8>
   10624:	e51b3018 	ldr	r3, [fp, #-24]	; 0xffffffe8
   10628:	e2833010 	add	r3, r3, #16
   1062c:	e50b3018 	str	r3, [fp, #-24]	; 0xffffffe8
   10630:	e51b0018 	ldr	r0, [fp, #-24]	; 0xffffffe8
   10634:	eb0007d0 	bl	1257c <malloc>
   10638:	e50b0010 	str	r0, [fp, #-16]
   1063c:	e51b3010 	ldr	r3, [fp, #-16]
   10640:	e3a02079 	mov	r2, #121	; 0x79
   10644:	e59f106c 	ldr	r1, [pc, #108]	; 106b8 <__wrap_malloc+0xe8>
   10648:	e59f0070 	ldr	r0, [pc, #112]	; 106c0 <__wrap_malloc+0xf0>
   1064c:	eb0000b6 	bl	1092c <__GI_printf>
   10650:	e51b3010 	ldr	r3, [fp, #-16]
   10654:	e3530000 	cmp	r3, #0
   10658:	0a000010 	beq	106a0 <__wrap_malloc+0xd0>
   1065c:	e51b3010 	ldr	r3, [fp, #-16]
   10660:	e50b300c 	str	r3, [fp, #-12]
   10664:	e51b300c 	ldr	r3, [fp, #-12]
   10668:	e3a02000 	mov	r2, #0
   1066c:	e5832000 	str	r2, [r3]
   10670:	e51b300c 	ldr	r3, [fp, #-12]
   10674:	e3a02000 	mov	r2, #0
   10678:	e5832004 	str	r2, [r3, #4]
   1067c:	e51b300c 	ldr	r3, [fp, #-12]
   10680:	e51b2008 	ldr	r2, [fp, #-8]
   10684:	e5832008 	str	r2, [r3, #8]
   10688:	e51b3018 	ldr	r3, [fp, #-24]	; 0xffffffe8
   1068c:	e2432010 	sub	r2, r3, #16
   10690:	e51b300c 	ldr	r3, [fp, #-12]
   10694:	e583200c 	str	r2, [r3, #12]
   10698:	e51b000c 	ldr	r0, [fp, #-12]
   1069c:	ebffff68 	bl	10444 <addAllocNode>
   106a0:	e51b3010 	ldr	r3, [fp, #-16]
   106a4:	e2833010 	add	r3, r3, #16
   106a8:	e1a00003 	mov	r0, r3
   106ac:	e24bd004 	sub	sp, fp, #4
   106b0:	e8bd8800 	pop	{fp, pc}
   106b4:	0006e76c 	.word	0x0006e76c
   106b8:	0001e68c 	.word	0x0001e68c
   106bc:	0001e69c 	.word	0x0001e69c
   106c0:	0001e6bc 	.word	0x0001e6bc

000106c4 <__wrap_calloc>:
   106c4:	e92d4800 	push	{fp, lr}
   106c8:	e28db004 	add	fp, sp, #4
   106cc:	e24dd018 	sub	sp, sp, #24
   106d0:	e50b0018 	str	r0, [fp, #-24]	; 0xffffffe8
   106d4:	e50b101c 	str	r1, [fp, #-28]	; 0xffffffe4
   106d8:	e3a03000 	mov	r3, #0
   106dc:	e50b3008 	str	r3, [fp, #-8]
   106e0:	e1a0300e 	mov	r3, lr
   106e4:	e50b3008 	str	r3, [fp, #-8]
   106e8:	e3a03000 	mov	r3, #0
   106ec:	e50b300c 	str	r3, [fp, #-12]
   106f0:	e51b301c 	ldr	r3, [fp, #-28]	; 0xffffffe4
   106f4:	e3530000 	cmp	r3, #0
   106f8:	0a000002 	beq	10708 <__wrap_calloc+0x44>
   106fc:	e51b3018 	ldr	r3, [fp, #-24]	; 0xffffffe8
   10700:	e3530000 	cmp	r3, #0
   10704:	1a000007 	bne	10728 <__wrap_calloc+0x64>
   10708:	e59f30bc 	ldr	r3, [pc, #188]	; 107cc <__wrap_calloc+0x108>
   1070c:	e5930000 	ldr	r0, [r3]
   10710:	e3a03092 	mov	r3, #146	; 0x92
   10714:	e59f20b4 	ldr	r2, [pc, #180]	; 107d0 <__wrap_calloc+0x10c>
   10718:	e59f10b4 	ldr	r1, [pc, #180]	; 107d4 <__wrap_calloc+0x110>
   1071c:	eb000093 	bl	10970 <__GI_fprintf>
   10720:	e3a03000 	mov	r3, #0
   10724:	ea000025 	b	107c0 <__wrap_calloc+0xfc>
   10728:	e51b301c 	ldr	r3, [fp, #-28]	; 0xffffffe4
   1072c:	e51b2018 	ldr	r2, [fp, #-24]	; 0xffffffe8
   10730:	e0030392 	mul	r3, r2, r3
   10734:	e2833010 	add	r3, r3, #16
   10738:	e50b301c 	str	r3, [fp, #-28]	; 0xffffffe4
   1073c:	e51b001c 	ldr	r0, [fp, #-28]	; 0xffffffe4
   10740:	eb00078d 	bl	1257c <malloc>
   10744:	e50b0010 	str	r0, [fp, #-16]
   10748:	e51b3010 	ldr	r3, [fp, #-16]
   1074c:	e3530000 	cmp	r3, #0
   10750:	0a000010 	beq	10798 <__wrap_calloc+0xd4>
   10754:	e51b3010 	ldr	r3, [fp, #-16]
   10758:	e50b300c 	str	r3, [fp, #-12]
   1075c:	e51b300c 	ldr	r3, [fp, #-12]
   10760:	e3a02000 	mov	r2, #0
   10764:	e5832000 	str	r2, [r3]
   10768:	e51b300c 	ldr	r3, [fp, #-12]
   1076c:	e3a02000 	mov	r2, #0
   10770:	e5832004 	str	r2, [r3, #4]
   10774:	e51b300c 	ldr	r3, [fp, #-12]
   10778:	e51b2008 	ldr	r2, [fp, #-8]
   1077c:	e5832008 	str	r2, [r3, #8]
   10780:	e51b301c 	ldr	r3, [fp, #-28]	; 0xffffffe4
   10784:	e2432010 	sub	r2, r3, #16
   10788:	e51b300c 	ldr	r3, [fp, #-12]
   1078c:	e583200c 	str	r2, [r3, #12]
   10790:	e51b000c 	ldr	r0, [fp, #-12]
   10794:	ebffff2a 	bl	10444 <addAllocNode>
   10798:	e51b3010 	ldr	r3, [fp, #-16]
   1079c:	e2833010 	add	r3, r3, #16
   107a0:	e50b3010 	str	r3, [fp, #-16]
   107a4:	e51b301c 	ldr	r3, [fp, #-28]	; 0xffffffe4
   107a8:	e2433010 	sub	r3, r3, #16
   107ac:	e1a02003 	mov	r2, r3
   107b0:	e3a01000 	mov	r1, #0
   107b4:	e51b0010 	ldr	r0, [fp, #-16]
   107b8:	eb000648 	bl	120e0 <__GI_memset>
   107bc:	e51b3010 	ldr	r3, [fp, #-16]
   107c0:	e1a00003 	mov	r0, r3
   107c4:	e24bd004 	sub	sp, fp, #4
   107c8:	e8bd8800 	pop	{fp, pc}
   107cc:	0006e76c 	.word	0x0006e76c
   107d0:	0001e68c 	.word	0x0001e68c
   107d4:	0001e69c 	.word	0x0001e69c

000107d8 <__wrap_realloc>:
   107d8:	e92d4800 	push	{fp, lr}
   107dc:	e28db004 	add	fp, sp, #4
   107e0:	e24dd018 	sub	sp, sp, #24
   107e4:	e50b0018 	str	r0, [fp, #-24]	; 0xffffffe8
   107e8:	e50b101c 	str	r1, [fp, #-28]	; 0xffffffe4
   107ec:	e3a03000 	mov	r3, #0
   107f0:	e50b3008 	str	r3, [fp, #-8]
   107f4:	e1a0300e 	mov	r3, lr
   107f8:	e50b3008 	str	r3, [fp, #-8]
   107fc:	e3a03000 	mov	r3, #0
   10800:	e50b300c 	str	r3, [fp, #-12]
   10804:	e51b3018 	ldr	r3, [fp, #-24]	; 0xffffffe8
   10808:	e3530000 	cmp	r3, #0
   1080c:	0a000002 	beq	1081c <__wrap_realloc+0x44>
   10810:	e51b301c 	ldr	r3, [fp, #-28]	; 0xffffffe4
   10814:	e3530000 	cmp	r3, #0
   10818:	1a000007 	bne	1083c <__wrap_realloc+0x64>
   1081c:	e59f30a4 	ldr	r3, [pc, #164]	; 108c8 <__wrap_realloc+0xf0>
   10820:	e5930000 	ldr	r0, [r3]
   10824:	e3a030b0 	mov	r3, #176	; 0xb0
   10828:	e59f209c 	ldr	r2, [pc, #156]	; 108cc <__wrap_realloc+0xf4>
   1082c:	e59f109c 	ldr	r1, [pc, #156]	; 108d0 <__wrap_realloc+0xf8>
   10830:	eb00004e 	bl	10970 <__GI_fprintf>
   10834:	e3a03000 	mov	r3, #0
   10838:	ea00001f 	b	108bc <__wrap_realloc+0xe4>
   1083c:	e51b301c 	ldr	r3, [fp, #-28]	; 0xffffffe4
   10840:	e2833010 	add	r3, r3, #16
   10844:	e50b301c 	str	r3, [fp, #-28]	; 0xffffffe4
   10848:	e51b3018 	ldr	r3, [fp, #-24]	; 0xffffffe8
   1084c:	e2433010 	sub	r3, r3, #16
   10850:	e50b3010 	str	r3, [fp, #-16]
   10854:	e51b101c 	ldr	r1, [fp, #-28]	; 0xffffffe4
   10858:	e51b0010 	ldr	r0, [fp, #-16]
   1085c:	eb000948 	bl	12d84 <realloc>
   10860:	e50b0010 	str	r0, [fp, #-16]
   10864:	e51b3010 	ldr	r3, [fp, #-16]
   10868:	e3530000 	cmp	r3, #0
   1086c:	0a000010 	beq	108b4 <__wrap_realloc+0xdc>
   10870:	e51b3010 	ldr	r3, [fp, #-16]
   10874:	e50b300c 	str	r3, [fp, #-12]
   10878:	e51b300c 	ldr	r3, [fp, #-12]
   1087c:	e3a02000 	mov	r2, #0
   10880:	e5832000 	str	r2, [r3]
   10884:	e51b300c 	ldr	r3, [fp, #-12]
   10888:	e3a02000 	mov	r2, #0
   1088c:	e5832004 	str	r2, [r3, #4]
   10890:	e51b300c 	ldr	r3, [fp, #-12]
   10894:	e51b2008 	ldr	r2, [fp, #-8]
   10898:	e5832008 	str	r2, [r3, #8]
   1089c:	e51b301c 	ldr	r3, [fp, #-28]	; 0xffffffe4
   108a0:	e2432010 	sub	r2, r3, #16
   108a4:	e51b300c 	ldr	r3, [fp, #-12]
   108a8:	e583200c 	str	r2, [r3, #12]
   108ac:	e51b000c 	ldr	r0, [fp, #-12]
   108b0:	ebfffee3 	bl	10444 <addAllocNode>
   108b4:	e51b3010 	ldr	r3, [fp, #-16]
   108b8:	e2833010 	add	r3, r3, #16
   108bc:	e1a00003 	mov	r0, r3
   108c0:	e24bd004 	sub	sp, fp, #4
   108c4:	e8bd8800 	pop	{fp, pc}
   108c8:	0006e76c 	.word	0x0006e76c
   108cc:	0001e68c 	.word	0x0001e68c
   108d0:	0001e69c 	.word	0x0001e69c

000108d4 <__wrap_free>:
   108d4:	e92d4800 	push	{fp, lr}
   108d8:	e28db004 	add	fp, sp, #4
   108dc:	e24dd010 	sub	sp, sp, #16
   108e0:	e50b0010 	str	r0, [fp, #-16]
   108e4:	e51b3010 	ldr	r3, [fp, #-16]
   108e8:	e2433010 	sub	r3, r3, #16
   108ec:	e50b3008 	str	r3, [fp, #-8]
   108f0:	e51b3008 	ldr	r3, [fp, #-8]
   108f4:	e3a020cb 	mov	r2, #203	; 0xcb
   108f8:	e59f1024 	ldr	r1, [pc, #36]	; 10924 <__wrap_free+0x50>
   108fc:	e59f0024 	ldr	r0, [pc, #36]	; 10928 <__wrap_free+0x54>
   10900:	eb000009 	bl	1092c <__GI_printf>
   10904:	e51b0008 	ldr	r0, [fp, #-8]
   10908:	ebfffee6 	bl	104a8 <delAllocNode>
   1090c:	e51b0008 	ldr	r0, [fp, #-8]
   10910:	eb000aa0 	bl	13398 <free>
   10914:	ebffff08 	bl	1053c <dumpList>
   10918:	e1a00000 	nop			; (mov r0, r0)
   1091c:	e24bd004 	sub	sp, fp, #4
   10920:	e8bd8800 	pop	{fp, pc}
   10924:	0001e68c 	.word	0x0001e68c
   10928:	0001e6dc 	.word	0x0001e6dc

0001092c <__GI_printf>:
   1092c:	e92d000f 	.word	0xe92d000f
   10930:	e59f3030 	.word	0xe59f3030
   10934:	e92d4007 	.word	0xe92d4007
   10938:	e59f102c 	.word	0xe59f102c
   1093c:	e28d2014 	.word	0xe28d2014
   10940:	e08f3003 	.word	0xe08f3003
   10944:	e58d2004 	.word	0xe58d2004
   10948:	e7933001 	.word	0xe7933001
   1094c:	e59d1010 	.word	0xe59d1010
   10950:	e5930000 	.word	0xe5930000
   10954:	eb00009c 	.word	0xeb00009c
   10958:	e28dd00c 	.word	0xe28dd00c
   1095c:	e49de004 	.word	0xe49de004
   10960:	e28dd010 	.word	0xe28dd010
   10964:	e12fff1e 	.word	0xe12fff1e
   10968:	0005dc58 	.word	0x0005dc58
   1096c:	00000010 	.word	0x00000010

00010970 <__GI_fprintf>:
   10970:	e92d000e 	.word	0xe92d000e
   10974:	e92d4003 	.word	0xe92d4003
   10978:	e59d100c 	.word	0xe59d100c
   1097c:	e28d2010 	.word	0xe28d2010
   10980:	e58d2004 	.word	0xe58d2004
   10984:	eb000090 	.word	0xeb000090
   10988:	e28dd008 	.word	0xe28dd008
   1098c:	e49de004 	.word	0xe49de004
   10990:	e28dd00c 	.word	0xe28dd00c
   10994:	e12fff1e 	.word	0xe12fff1e

00010998 <_stdio_term>:
   10998:	e59f2120 	.word	0xe59f2120
   1099c:	e59f3120 	.word	0xe59f3120
   109a0:	e08f2002 	.word	0xe08f2002
   109a4:	e92d47f0 	.word	0xe92d47f0
   109a8:	e7921003 	.word	0xe7921003
   109ac:	e3a03000 	.word	0xe3a03000
   109b0:	e5813000 	.word	0xe5813000
   109b4:	e5813004 	.word	0xe5813004
   109b8:	e5813008 	.word	0xe5813008
   109bc:	e59f1104 	.word	0xe59f1104
   109c0:	e3a09001 	.word	0xe3a09001
   109c4:	e7921001 	.word	0xe7921001
   109c8:	e1a06003 	.word	0xe1a06003
   109cc:	e5813000 	.word	0xe5813000
   109d0:	e5813004 	.word	0xe5813004
   109d4:	e5813008 	.word	0xe5813008
   109d8:	e59f10ec 	.word	0xe59f10ec
   109dc:	e3a08030 	.word	0xe3a08030
   109e0:	e7922001 	.word	0xe7922001
   109e4:	e5925000 	.word	0xe5925000
   109e8:	e1a07002 	.word	0xe1a07002
   109ec:	e3550000 	.word	0xe3550000
   109f0:	0a000018 	.word	0x0a000018
   109f4:	e5953054 	.word	0xe5953054
   109f8:	eb0010b4 	.word	0xeb0010b4
   109fc:	e2400e49 	.word	0xe2400e49
   10a00:	e1530000 	.word	0xe1530000
   10a04:	0a00000d 	.word	0x0a00000d
   10a08:	e3a01001 	.word	0xe3a01001
   10a0c:	e285204c 	.word	0xe285204c
   10a10:	e3a04000 	.word	0xe3a04000
   10a14:	e5923000 	.word	0xe5923000
   10a18:	e1530004 	.word	0xe1530004
   10a1c:	1a000005 	.word	0x1a000005
   10a20:	e1a00004 	.word	0xe1a00004
   10a24:	e3e03a0f 	.word	0xe3e03a0f
   10a28:	e1a0e00f 	.word	0xe1a0e00f
   10a2c:	e243f03f 	.word	0xe243f03f
   10a30:	3afffff7 	.word	0x3afffff7
   10a34:	e1a03004 	.word	0xe1a03004
   10a38:	e1530004 	.word	0xe1530004
   10a3c:	1a000018 	.word	0x1a000018
   10a40:	e5859048 	.word	0xe5859048
   10a44:	e585604c 	.word	0xe585604c
   10a48:	e5856050 	.word	0xe5856050
   10a4c:	e5856054 	.word	0xe5856054
   10a50:	e5955020 	.word	0xe5955020
   10a54:	eaffffe4 	.word	0xeaffffe4
   10a58:	e5974000 	.word	0xe5974000
   10a5c:	e3540000 	.word	0xe3540000
   10a60:	0a00000e 	.word	0x0a00000e
   10a64:	e1d430b0 	.word	0xe1d430b0
   10a68:	e3130040 	.word	0xe3130040
   10a6c:	0a000001 	.word	0x0a000001
   10a70:	e1a00004 	.word	0xe1a00004
   10a74:	eb000033 	.word	0xeb000033
   10a78:	e5940024 	.word	0xe5940024
   10a7c:	e2843004 	.word	0xe2843004
   10a80:	e1500003 	.word	0xe1500003
   10a84:	0a000003 	.word	0x0a000003
   10a88:	e5943034 	.word	0xe5943034
   10a8c:	e3530000 	.word	0xe3530000
   10a90:	0a000000 	.word	0x0a000000
   10a94:	e12fff33 	.word	0xe12fff33
   10a98:	e5944020 	.word	0xe5944020
   10a9c:	eaffffee 	.word	0xeaffffee
   10aa0:	e8bd87f0 	.word	0xe8bd87f0
   10aa4:	e5953008 	.word	0xe5953008
   10aa8:	e1c580b0 	.word	0xe1c580b0
   10aac:	e5853018 	.word	0xe5853018
   10ab0:	e585301c 	.word	0xe585301c
   10ab4:	e5853010 	.word	0xe5853010
   10ab8:	e5853014 	.word	0xe5853014
   10abc:	eaffffdf 	.word	0xeaffffdf
   10ac0:	0005dbf8 	.word	0x0005dbf8
   10ac4:	00000098 	.word	0x00000098
   10ac8:	000000a0 	.word	0x000000a0
   10acc:	00000058 	.word	0x00000058

00010ad0 <_stdio_init>:
   10ad0:	e59f3060 	.word	0xe59f3060
   10ad4:	e92d4010 	.word	0xe92d4010
   10ad8:	eb00107c 	.word	0xeb00107c
   10adc:	e79f3003 	.word	0xe79f3003
   10ae0:	e7904003 	.word	0xe7904003
   10ae4:	e3a00000 	.word	0xe3a00000
   10ae8:	eb000646 	.word	0xeb000646
   10aec:	e3500000 	.word	0xe3500000
   10af0:	059f2044 	.word	0x059f2044
   10af4:	008f2002 	.word	0x008f2002
   10af8:	01d230b0 	.word	0x01d230b0
   10afc:	02233c01 	.word	0x02233c01
   10b00:	01c230b0 	.word	0x01c230b0
   10b04:	e3a00001 	.word	0xe3a00001
   10b08:	eb00063e 	.word	0xeb00063e
   10b0c:	e3500000 	.word	0xe3500000
   10b10:	059f2028 	.word	0x059f2028
   10b14:	008f2002 	.word	0x008f2002
   10b18:	01d235b8 	.word	0x01d235b8
   10b1c:	02233c01 	.word	0x02233c01
   10b20:	01c235b8 	.word	0x01c235b8
   10b24:	e59f3018 	.word	0xe59f3018
   10b28:	eb001068 	.word	0xeb001068
   10b2c:	e79f3003 	.word	0xe79f3003
   10b30:	e7804003 	.word	0xe7804003
   10b34:	e8bd8010 	.word	0xe8bd8010
   10b38:	0005db24 	.word	0x0005db24
   10b3c:	0005db5c 	.word	0x0005db5c
   10b40:	0005db3c 	.word	0x0005db3c
   10b44:	0005dad4 	.word	0x0005dad4

00010b48 <__stdio_wcommit>:
   10b48:	e5901008 	.word	0xe5901008
   10b4c:	e5902010 	.word	0xe5902010
   10b50:	e92d4010 	.word	0xe92d4010
   10b54:	e0522001 	.word	0xe0522001
   10b58:	e1a04000 	.word	0xe1a04000
   10b5c:	0a000004 	.word	0x0a000004
   10b60:	e1d030b0 	.word	0xe1d030b0
   10b64:	e3130008 	.word	0xe3130008
   10b68:	1a000001 	.word	0x1a000001
   10b6c:	e5801010 	.word	0xe5801010
   10b70:	eb001d38 	.word	0xeb001d38
   10b74:	e5940010 	.word	0xe5940010
   10b78:	e5943008 	.word	0xe5943008
   10b7c:	e0630000 	.word	0xe0630000
   10b80:	e8bd8010 	.word	0xe8bd8010

00010b84 <_cs_read>:
   10b84:	e5900000 	.word	0xe5900000
   10b88:	ea000e2c 	.word	0xea000e2c

00010b8c <_cs_write>:
   10b8c:	e5900000 	.word	0xe5900000
   10b90:	ea000e06 	.word	0xea000e06

00010b94 <_cs_seek>:
   10b94:	e92d4013 	.word	0xe92d4013
   10b98:	e58d2000 	.word	0xe58d2000
   10b9c:	e1c120d0 	.word	0xe1c120d0
   10ba0:	e5900000 	.word	0xe5900000
   10ba4:	e1a04001 	.word	0xe1a04001
   10ba8:	eb0011cf 	.word	0xeb0011cf
   10bac:	e3500000 	.word	0xe3500000
   10bb0:	e2d13000 	.word	0xe2d13000
   10bb4:	a1c400f0 	.word	0xa1c400f0
   10bb8:	a3a00000 	.word	0xa3a00000
   10bbc:	e28dd008 	.word	0xe28dd008
   10bc0:	e8bd8010 	.word	0xe8bd8010

00010bc4 <_cs_close>:
   10bc4:	e5900000 	.word	0xe5900000
   10bc8:	ea000dd4 	.word	0xea000dd4

00010bcc <__GI_vfprintf>:
   10bcc:	e92d47f0 	.word	0xe92d47f0
   10bd0:	e5906048 	.word	0xe5906048
   10bd4:	e1a05000 	.word	0xe1a05000
   10bd8:	e3560000 	.word	0xe3560000
   10bdc:	e1a07001 	.word	0xe1a07001
   10be0:	e1a08002 	.word	0xe1a08002
   10be4:	1a000019 	.word	0x1a000019
   10be8:	e5953054 	.word	0xe5953054
   10bec:	eb001037 	.word	0xeb001037
   10bf0:	e2409e49 	.word	0xe2409e49
   10bf4:	e1530009 	.word	0xe1530009
   10bf8:	0a000011 	.word	0x0a000011
   10bfc:	e285a04c 	.word	0xe285a04c
   10c00:	e3a01001 	.word	0xe3a01001
   10c04:	e1a0200a 	.word	0xe1a0200a
   10c08:	e1a04006 	.word	0xe1a04006
   10c0c:	e5923000 	.word	0xe5923000
   10c10:	e1530004 	.word	0xe1530004
   10c14:	1a000005 	.word	0x1a000005
   10c18:	e1a00004 	.word	0xe1a00004
   10c1c:	e3e03a0f 	.word	0xe3e03a0f
   10c20:	e1a0e00f 	.word	0xe1a0e00f
   10c24:	e243f03f 	.word	0xe243f03f
   10c28:	3afffff7 	.word	0x3afffff7
   10c2c:	e1a03004 	.word	0xe1a03004
   10c30:	e3530000 	.word	0xe3530000
   10c34:	0a000001 	.word	0x0a000001
   10c38:	e1a0000a 	.word	0xe1a0000a
   10c3c:	eb000cef 	.word	0xeb000cef
   10c40:	e5859054 	.word	0xe5859054
   10c44:	e5953050 	.word	0xe5953050
   10c48:	e2833001 	.word	0xe2833001
   10c4c:	e5853050 	.word	0xe5853050
   10c50:	e1d530b0 	.word	0xe1d530b0
   10c54:	e20330c0 	.word	0xe20330c0
   10c58:	e35300c0 	.word	0xe35300c0
   10c5c:	1a000005 	.word	0x1a000005
   10c60:	e1a02008 	.word	0xe1a02008
   10c64:	e1a01007 	.word	0xe1a01007
   10c68:	e1a00005 	.word	0xe1a00005
   10c6c:	eb00005c 	.word	0xeb00005c
   10c70:	e1a08000 	.word	0xe1a08000
   10c74:	ea000005 	.word	0xea000005
   10c78:	e3a01080 	.word	0xe3a01080
   10c7c:	e1a00005 	.word	0xe1a00005
   10c80:	eb001e9d 	.word	0xeb001e9d
   10c84:	e3500000 	.word	0xe3500000
   10c88:	0afffff4 	.word	0x0afffff4
   10c8c:	e3e08000 	.word	0xe3e08000
   10c90:	e3560000 	.word	0xe3560000
   10c94:	1a00001c 	.word	0x1a00001c
   10c98:	e5953050 	.word	0xe5953050
   10c9c:	e2433001 	.word	0xe2433001
   10ca0:	e3530000 	.word	0xe3530000
   10ca4:	e5853050 	.word	0xe5853050
   10ca8:	1a000017 	.word	0x1a000017
   10cac:	e5856054 	.word	0xe5856054
   10cb0:	e285604c 	.word	0xe285604c
   10cb4:	e3a01000 	.word	0xe3a01000
   10cb8:	e1a02006 	.word	0xe1a02006
   10cbc:	e595404c 	.word	0xe595404c
   10cc0:	e5923000 	.word	0xe5923000
   10cc4:	e1530004 	.word	0xe1530004
   10cc8:	1a000005 	.word	0x1a000005
   10ccc:	e1a00004 	.word	0xe1a00004
   10cd0:	e3e03a0f 	.word	0xe3e03a0f
   10cd4:	e1a0e00f 	.word	0xe1a0e00f
   10cd8:	e243f03f 	.word	0xe243f03f
   10cdc:	3afffff7 	.word	0x3afffff7
   10ce0:	e1a03004 	.word	0xe1a03004
   10ce4:	e1530004 	.word	0xe1530004
   10ce8:	1afffff1 	.word	0x1afffff1
   10cec:	e3530001 	.word	0xe3530001
   10cf0:	da000005 	.word	0xda000005
   10cf4:	e1a00006 	.word	0xe1a00006
   10cf8:	e3a01081 	.word	0xe3a01081
   10cfc:	e3a02001 	.word	0xe3a02001
   10d00:	e3a03000 	.word	0xe3a03000
   10d04:	e3a070f0 	.word	0xe3a070f0
   10d08:	ef000000 	.word	0xef000000
   10d0c:	e1a00008 	.word	0xe1a00008
   10d10:	e8bd87f0 	.word	0xe8bd87f0
   10d14:	e92d40f7 	.word	0xe92d40f7
   10d18:	e1a07000 	.word	0xe1a07000
   10d1c:	e28d5008 	.word	0xe28d5008
   10d20:	e1a06002 	.word	0xe1a06002
   10d24:	e1a04002 	.word	0xe1a04002
   10d28:	e5651004 	.word	0xe5651004
   10d2c:	e3540000 	.word	0xe3540000
   10d30:	0a000006 	.word	0x0a000006
   10d34:	e1a02007 	.word	0xe1a02007
   10d38:	e3a01001 	.word	0xe3a01001
   10d3c:	e1a00005 	.word	0xe1a00005
   10d40:	eb001e1f 	.word	0xeb001e1f
   10d44:	e3500001 	.word	0xe3500001
   10d48:	02444001 	.word	0x02444001
   10d4c:	0afffff6 	.word	0x0afffff6
   10d50:	e0640006 	.word	0xe0640006
   10d54:	e28dd00c 	.word	0xe28dd00c
   10d58:	e8bd80f0 	.word	0xe8bd80f0
   10d5c:	e92d47f0 	.word	0xe92d47f0
   10d60:	e2114080 	.word	0xe2114080
   10d64:	e1a09000 	.word	0xe1a09000
   10d68:	e1a07001 	.word	0xe1a07001
   10d6c:	e1a05002 	.word	0xe1a05002
   10d70:	e1a08003 	.word	0xe1a08003
   10d74:	0a00000d 	.word	0x0a00000d
   10d78:	e1a00003 	.word	0xe1a00003
   10d7c:	eb0004ff 	.word	0xeb0004ff
   10d80:	e0605005 	.word	0xe0605005
   10d84:	e3550000 	.word	0xe3550000
   10d88:	e1a06000 	.word	0xe1a06000
   10d8c:	da000009 	.word	0xda000009
   10d90:	e1a02005 	.word	0xe1a02005
   10d94:	e207107f 	.word	0xe207107f
   10d98:	e1a00009 	.word	0xe1a00009
   10d9c:	ebffffdc 	.word	0xebffffdc
   10da0:	e1500005 	.word	0xe1500005
   10da4:	e1a04000 	.word	0xe1a04000
   10da8:	1a00000c 	.word	0x1a00000c
   10dac:	ea000002 	.word	0xea000002
   10db0:	e1a06002 	.word	0xe1a06002
   10db4:	ea000000 	.word	0xea000000
   10db8:	e3a04000 	.word	0xe3a04000
   10dbc:	e3560000 	.word	0xe3560000
   10dc0:	d3a00000 	.word	0xd3a00000
   10dc4:	da000003 	.word	0xda000003
   10dc8:	e1a02009 	.word	0xe1a02009
   10dcc:	e1a01006 	.word	0xe1a01006
   10dd0:	e1a00008 	.word	0xe1a00008
   10dd4:	eb001dfa 	.word	0xeb001dfa
   10dd8:	e0800004 	.word	0xe0800004
   10ddc:	e8bd87f0 	.word	0xe8bd87f0
   10de0:	e8bd87f0 	.word	0xe8bd87f0

00010de4 <_vfprintf_internal>:
   10de4:	e59f36b8 	.word	0xe59f36b8
   10de8:	e92d4ff0 	.word	0xe92d4ff0
   10dec:	e1a06002 	.word	0xe1a06002
   10df0:	e59f26b0 	.word	0xe59f26b0
   10df4:	e08f3003 	.word	0xe08f3003
   10df8:	e7935002 	.word	0xe7935002
   10dfc:	e24ddf57 	.word	0xe24ddf57
   10e00:	e5953000 	.word	0xe5953000
   10e04:	e28db038 	.word	0xe28db038
   10e08:	e1a09000 	.word	0xe1a09000
   10e0c:	e1a0000b 	.word	0xe1a0000b
   10e10:	e1a04001 	.word	0xe1a04001
   10e14:	e58d3154 	.word	0xe58d3154
   10e18:	eb0001ac 	.word	0xeb0001ac
   10e1c:	e58d5008 	.word	0xe58d5008
   10e20:	e3500000 	.word	0xe3500000
   10e24:	aa000008 	.word	0xaa000008
   10e28:	e59d4038 	.word	0xe59d4038
   10e2c:	e1a00004 	.word	0xe1a00004
   10e30:	eb0004d2 	.word	0xeb0004d2
   10e34:	e2501000 	.word	0xe2501000
   10e38:	0a00018d 	.word	0x0a00018d
   10e3c:	e1a02009 	.word	0xe1a02009
   10e40:	e1a00004 	.word	0xe1a00004
   10e44:	eb001dde 	.word	0xeb001dde
   10e48:	ea000189 	.word	0xea000189
   10e4c:	e1a0000b 	.word	0xe1a0000b
   10e50:	e1a01006 	.word	0xe1a01006
   10e54:	eb0001de 	.word	0xeb0001de
   10e58:	e59f364c 	.word	0xe59f364c
   10e5c:	e1a00004 	.word	0xe1a00004
   10e60:	e08f3003 	.word	0xe08f3003
   10e64:	e2833007 	.word	0xe2833007
   10e68:	e58d300c 	.word	0xe58d300c
   10e6c:	e59f363c 	.word	0xe59f363c
   10e70:	e3a07000 	.word	0xe3a07000
   10e74:	e08f3003 	.word	0xe08f3003
   10e78:	e58d3010 	.word	0xe58d3010
   10e7c:	e5d43000 	.word	0xe5d43000
   10e80:	e3530025 	.word	0xe3530025
   10e84:	13530000 	.word	0x13530000
   10e88:	13a03001 	.word	0x13a03001
   10e8c:	03a03000 	.word	0x03a03000
   10e90:	12844001 	.word	0x12844001
   10e94:	1afffff8 	.word	0x1afffff8
   10e98:	e1540000 	.word	0xe1540000
   10e9c:	0a000009 	.word	0x0a000009
   10ea0:	e0605004 	.word	0xe0605004
   10ea4:	e3550000 	.word	0xe3550000
   10ea8:	d1a00003 	.word	0xd1a00003
   10eac:	da000002 	.word	0xda000002
   10eb0:	e1a02009 	.word	0xe1a02009
   10eb4:	e1a01005 	.word	0xe1a01005
   10eb8:	eb001dc1 	.word	0xeb001dc1
   10ebc:	e1500005 	.word	0xe1500005
   10ec0:	1a00016b 	.word	0x1a00016b
   10ec4:	e0877000 	.word	0xe0877000
   10ec8:	e5d43000 	.word	0xe5d43000
   10ecc:	e3530000 	.word	0xe3530000
   10ed0:	0a000168 	.word	0x0a000168
   10ed4:	e1a00004 	.word	0xe1a00004
   10ed8:	e5f03001 	.word	0xe5f03001
   10edc:	e3530025 	.word	0xe3530025
   10ee0:	0a000161 	.word	0x0a000161
   10ee4:	e3a03000 	.word	0xe3a03000
   10ee8:	e58d0038 	.word	0xe58d0038
   10eec:	e1a0000b 	.word	0xe1a0000b
   10ef0:	e58d3018 	.word	0xe58d3018
   10ef4:	eb00021c 	.word	0xeb00021c
   10ef8:	e1a0000b 	.word	0xe1a0000b
   10efc:	eb0001c2 	.word	0xeb0001c2
   10f00:	e59d3050 	.word	0xe59d3050
   10f04:	e5dd205e 	.word	0xe5dd205e
   10f08:	e3530000 	.word	0xe3530000
   10f0c:	c242121e 	.word	0xc242121e
   10f10:	e28b3050 	.word	0xe28b3050
   10f14:	c0833181 	.word	0xc0833181
   10f18:	e3a01000 	.word	0xe3a01000
   10f1c:	e59d0054 	.word	0xe59d0054
   10f20:	e1510000 	.word	0xe1510000
   10f24:	aa000005 	.word	0xaa000005
   10f28:	e28d0f56 	.word	0xe28d0f56
   10f2c:	e0800101 	.word	0xe0800101
   10f30:	e5003134 	.word	0xe5003134
   10f34:	e2811001 	.word	0xe2811001
   10f38:	e2833008 	.word	0xe2833008
   10f3c:	eafffff6 	.word	0xeafffff6
   10f40:	e59d3058 	.word	0xe59d3058
   10f44:	e3530000 	.word	0xe3530000
   10f48:	1a000007 	.word	0x1a000007
   10f4c:	e59d1048 	.word	0xe59d1048
   10f50:	e59d0024 	.word	0xe59d0024
   10f54:	e1a02007 	.word	0xe1a02007
   10f58:	e1a03fc7 	.word	0xe1a03fc7
   10f5c:	e2011c0f 	.word	0xe2011c0f
   10f60:	e5900000 	.word	0xe5900000
   10f64:	eb001e3b 	.word	0xeb001e3b
   10f68:	ea00013c 	.word	0xea00013c
   10f6c:	e3530007 	.word	0xe3530007
   10f70:	8a000065 	.word	0x8a000065
   10f74:	e59f1538 	.word	0xe59f1538
   10f78:	e08f1001 	.word	0xe08f1001
   10f7c:	e0811003 	.word	0xe0811003
   10f80:	e5514001 	.word	0xe5514001
   10f84:	e354000a 	.word	0xe354000a
   10f88:	13a08057 	.word	0x13a08057
   10f8c:	1a000005 	.word	0x1a000005
   10f90:	e59d1048 	.word	0xe59d1048
   10f94:	e3110020 	.word	0xe3110020
   10f98:	13a0802c 	.word	0x13a0802c
   10f9c:	03a08057 	.word	0x03a08057
   10fa0:	e3110040 	.word	0xe3110040
   10fa4:	13888080 	.word	0x13888080
   10fa8:	e3530005 	.word	0xe3530005
   10fac:	8a000006 	.word	0x8a000006
   10fb0:	e3530003 	.word	0xe3530003
   10fb4:	0a000002 	.word	0x0a000002
   10fb8:	e3530001 	.word	0xe3530001
   10fbc:	1a000003 	.word	0x1a000003
   10fc0:	ea000004 	.word	0xea000004
   10fc4:	e3a08037 	.word	0xe3a08037
   10fc8:	ea000000 	.word	0xea000000
   10fcc:	e2644000 	.word	0xe2644000
   10fd0:	e3a0600b 	.word	0xe3a0600b
   10fd4:	ea000000 	.word	0xea000000
   10fd8:	e3a06006 	.word	0xe3a06006
   10fdc:	e59d103c 	.word	0xe59d103c
   10fe0:	e28d50d4 	.word	0xe28d50d4
   10fe4:	e3510000 	.word	0xe3510000
   10fe8:	b5dda04c 	.word	0xb5dda04c
   10fec:	a3a0a020 	.word	0xa3a0a020
   10ff0:	e3530001 	.word	0xe3530001
   10ff4:	128d3f56 	.word	0x128d3f56
   10ff8:	10832102 	.word	0x10832102
   10ffc:	151200fc 	.word	0x151200fc
   11000:	03a00b01 	.word	0x03a00b01
   11004:	12000c0f 	.word	0x12000c0f
   11008:	e1a02004 	.word	0xe1a02004
   1100c:	e59d1024 	.word	0xe59d1024
   11010:	eb001df2 	.word	0xeb001df2
   11014:	e88d0110 	.word	0xe88d0110
   11018:	e1a02000 	.word	0xe1a02000
   1101c:	e1a03001 	.word	0xe1a03001
   11020:	e285007f 	.word	0xe285007f
   11024:	eb001e16 	.word	0xeb001e16
   11028:	e59d2058 	.word	0xe59d2058
   1102c:	e3520005 	.word	0xe3520005
   11030:	e1a03000 	.word	0xe1a03000
   11034:	9a00000c 	.word	0x9a00000c
   11038:	e5d01000 	.word	0xe5d01000
   1103c:	e351002d 	.word	0xe351002d
   11040:	e59d1048 	.word	0xe59d1048
   11044:	03811002 	.word	0x03811002
   11048:	058d1048 	.word	0x058d1048
   1104c:	02803001 	.word	0x02803001
   11050:	03a06002 	.word	0x03a06002
   11054:	0a000004 	.word	0x0a000004
   11058:	e3110002 	.word	0xe3110002
   1105c:	13a06000 	.word	0x13a06000
   11060:	1a000001 	.word	0x1a000001
   11064:	e3110001 	.word	0xe3110001
   11068:	13a06004 	.word	0x13a06004
   1106c:	e59d403c 	.word	0xe59d403c
   11070:	e59d1048 	.word	0xe59d1048
   11074:	e3540000 	.word	0xe3540000
   11078:	e285507f 	.word	0xe285507f
   1107c:	b3a04001 	.word	0xb3a04001
   11080:	e3110010 	.word	0xe3110010
   11084:	e0635005 	.word	0xe0635005
   11088:	e5d31000 	.word	0xe5d31000
   1108c:	0a00000c 	.word	0x0a00000c
   11090:	e3520002 	.word	0xe3520002
   11094:	9a0000fe 	.word	0x9a0000fe
   11098:	e3520003 	.word	0xe3520003
   1109c:	03a06009 	.word	0x03a06009
   110a0:	0a000007 	.word	0x0a000007
   110a4:	e3520004 	.word	0xe3520004
   110a8:	1a000005 	.word	0x1a000005
   110ac:	e1540005 	.word	0xe1540005
   110b0:	8a000003 	.word	0x8a000003
   110b4:	e3510030 	.word	0xe3510030
   110b8:	12854001 	.word	0x12854001
   110bc:	03a04001 	.word	0x03a04001
   110c0:	0a000001 	.word	0x0a000001
   110c4:	e3510030 	.word	0xe3510030
   110c8:	1a00000b 	.word	0x1a00000b
   110cc:	e3560005 	.word	0xe3560005
   110d0:	c3a0600b 	.word	0xc3a0600b
   110d4:	e3520001 	.word	0xe3520001
   110d8:	0a000003 	.word	0x0a000003
   110dc:	e3540000 	.word	0xe3540000
   110e0:	01a05004 	.word	0x01a05004
   110e4:	0a000081 	.word	0x0a000081
   110e8:	ea000003 	.word	0xea000003
   110ec:	e59f33c4 	.word	0xe59f33c4
   110f0:	e3a05005 	.word	0xe3a05005
   110f4:	e08f3003 	.word	0xe08f3003
   110f8:	ea00007c 	.word	0xea00007c
   110fc:	e1540005 	.word	0xe1540005
   11100:	80654004 	.word	0x80654004
   11104:	8a000080 	.word	0x8a000080
   11108:	ea000078 	.word	0xea000078
   1110c:	e353000f 	.word	0xe353000f
   11110:	8a000009 	.word	0x8a000009
   11114:	e59f33a0 	.word	0xe59f33a0
   11118:	e1a00009 	.word	0xe1a00009
   1111c:	e08f3003 	.word	0xe08f3003
   11120:	e58d3004 	.word	0xe58d3004
   11124:	e28d303c 	.word	0xe28d303c
   11128:	e58d3000 	.word	0xe58d3000
   1112c:	e59d3024 	.word	0xe59d3024
   11130:	e1c320d0 	.word	0xe1c320d0
   11134:	eb001e60 	.word	0xeb001e60
   11138:	ea000064 	.word	0xea000064
   1113c:	e3530011 	.word	0xe3530011
   11140:	8a000022 	.word	0x8a000022
   11144:	e3a04000 	.word	0xe3a04000
   11148:	e58d401c 	.word	0xe58d401c
   1114c:	e59d3024 	.word	0xe59d3024
   11150:	1a00000f 	.word	0x1a00000f
   11154:	e5933000 	.word	0xe5933000
   11158:	e1530004 	.word	0xe1530004
   1115c:	e58d3018 	.word	0xe58d3018
   11160:	0a00002d 	.word	0x0a00002d
   11164:	e59d203c 	.word	0xe59d203c
   11168:	e28d1018 	.word	0xe28d1018
   1116c:	e1520004 	.word	0xe1520004
   11170:	b3e02000 	.word	0xb3e02000
   11174:	e28d301c 	.word	0xe28d301c
   11178:	e1a00001 	.word	0xe1a00001
   1117c:	eb00195f 	.word	0xeb00195f
   11180:	e3700001 	.word	0xe3700001
   11184:	e1a05000 	.word	0xe1a05000
   11188:	0a0000b9 	.word	0x0a0000b9
   1118c:	e1a03004 	.word	0xe1a03004
   11190:	ea00000b 	.word	0xea00000b
   11194:	e28d60d4 	.word	0xe28d60d4
   11198:	e28d201c 	.word	0xe28d201c
   1119c:	e5931000 	.word	0xe5931000
   111a0:	e1a00006 	.word	0xe1a00006
   111a4:	eb00192b 	.word	0xeb00192b
   111a8:	e3700001 	.word	0xe3700001
   111ac:	e1a05000 	.word	0xe1a05000
   111b0:	0a0000af 	.word	0x0a0000af
   111b4:	e28d3f56 	.word	0xe28d3f56
   111b8:	e0833000 	.word	0xe0833000
   111bc:	e5434084 	.word	0xe5434084
   111c0:	e1a03006 	.word	0xe1a03006
   111c4:	e3a0a020 	.word	0xe3a0a020
   111c8:	e3a0600b 	.word	0xe3a0600b
   111cc:	ea00004e 	.word	0xea00004e
   111d0:	e3530013 	.word	0xe3530013
   111d4:	8a000022 	.word	0x8a000022
   111d8:	e59d3024 	.word	0xe59d3024
   111dc:	e5933000 	.word	0xe5933000
   111e0:	1a000017 	.word	0x1a000017
   111e4:	e3530000 	.word	0xe3530000
   111e8:	0a00000b 	.word	0x0a00000b
   111ec:	e59d103c 	.word	0xe59d103c
   111f0:	e1a00003 	.word	0xe1a00003
   111f4:	e3510000 	.word	0xe3510000
   111f8:	b3e01000 	.word	0xb3e01000
   111fc:	e58d3014 	.word	0xe58d3014
   11200:	eb0003f6 	.word	0xeb0003f6
   11204:	e3a0a020 	.word	0xe3a0a020
   11208:	e3a0600b 	.word	0xe3a0600b
   1120c:	e3a04000 	.word	0xe3a04000
   11210:	e59d3014 	.word	0xe59d3014
   11214:	e1a05000 	.word	0xe1a05000
   11218:	ea00003b 	.word	0xea00003b
   1121c:	e59d303c 	.word	0xe59d303c
   11220:	e3530005 	.word	0xe3530005
   11224:	8a000033 	.word	0x8a000033
   11228:	e59f3290 	.word	0xe59f3290
   1122c:	e3a04000 	.word	0xe3a04000
   11230:	e08f3003 	.word	0xe08f3003
   11234:	e3a0a020 	.word	0xe3a0a020
   11238:	e3a0600b 	.word	0xe3a0600b
   1123c:	e1a05004 	.word	0xe1a05004
   11240:	ea000031 	.word	0xea000031
   11244:	e3a04000 	.word	0xe3a04000
   11248:	e5cd30d4 	.word	0xe5cd30d4
   1124c:	e5cd40d5 	.word	0xe5cd40d5
   11250:	e28d30d4 	.word	0xe28d30d4
   11254:	e3a0a020 	.word	0xe3a0a020
   11258:	e3a0600b 	.word	0xe3a0600b
   1125c:	e3a05001 	.word	0xe3a05001
   11260:	ea000029 	.word	0xea000029
   11264:	e3530014 	.word	0xe3530014
   11268:	1a000008 	.word	0x1a000008
   1126c:	e59f3250 	.word	0xe59f3250
   11270:	eb000e96 	.word	0xeb000e96
   11274:	e3a02080 	.word	0xe3a02080
   11278:	e79f3003 	.word	0xe79f3003
   1127c:	e28d10d4 	.word	0xe28d10d4
   11280:	e7900003 	.word	0xe7900003
   11284:	eb00040c 	.word	0xeb00040c
   11288:	e1a03000 	.word	0xe1a03000
   1128c:	eaffffd6 	.word	0xeaffffd6
   11290:	e59f3230 	.word	0xe59f3230
   11294:	e79f2003 	.word	0xe79f2003
   11298:	e1a03002 	.word	0xe1a03002
   1129c:	e282100a 	.word	0xe282100a
   112a0:	e5d3c000 	.word	0xe5d3c000
   112a4:	e59d0044 	.word	0xe59d0044
   112a8:	e15c0000 	.word	0xe15c0000
   112ac:	1a00000b 	.word	0x1a00000b
   112b0:	e0623003 	.word	0xe0623003
   112b4:	e59f2210 	.word	0xe59f2210
   112b8:	e28d103c 	.word	0xe28d103c
   112bc:	e08f2002 	.word	0xe08f2002
   112c0:	e7923103 	.word	0xe7923103
   112c4:	e1a00009 	.word	0xe1a00009
   112c8:	e28d2024 	.word	0xe28d2024
   112cc:	e12fff33 	.word	0xe12fff33
   112d0:	e3500000 	.word	0xe3500000
   112d4:	ba000066 	.word	0xba000066
   112d8:	e0877000 	.word	0xe0877000
   112dc:	ea00005f 	.word	0xea00005f
   112e0:	e2833001 	.word	0xe2833001
   112e4:	e1530001 	.word	0xe1530001
   112e8:	3affffec 	.word	0x3affffec
   112ec:	ea000060 	.word	0xea000060
   112f0:	e3a04000 	.word	0xe3a04000
   112f4:	ea000004 	.word	0xea000004
   112f8:	e59d3010 	.word	0xe59d3010
   112fc:	e3a0a020 	.word	0xe3a0a020
   11300:	e3a0600b 	.word	0xe3a0600b
   11304:	e3a04000 	.word	0xe3a04000
   11308:	e3a05006 	.word	0xe3a05006
   1130c:	e356000b 	.word	0xe356000b
   11310:	e0842005 	.word	0xe0842005
   11314:	0a000003 	.word	0x0a000003
   11318:	e3560005 	.word	0xe3560005
   1131c:	d3a01001 	.word	0xd3a01001
   11320:	c3a01002 	.word	0xc3a01002
   11324:	e0822001 	.word	0xe0822001
   11328:	e59d8040 	.word	0xe59d8040
   1132c:	e0827007 	.word	0xe0827007
   11330:	e1580002 	.word	0xe1580002
   11334:	80628008 	.word	0x80628008
   11338:	93a08000 	.word	0x93a08000
   1133c:	e35a0030 	.word	0xe35a0030
   11340:	e59da048 	.word	0xe59da048
   11344:	00844008 	.word	0x00844008
   11348:	e0877008 	.word	0xe0877008
   1134c:	03a08000 	.word	0x03a08000
   11350:	e21aa008 	.word	0xe21aa008
   11354:	1a000008 	.word	0x1a000008
   11358:	e1a02008 	.word	0xe1a02008
   1135c:	e3a01020 	.word	0xe3a01020
   11360:	e1a00009 	.word	0xe1a00009
   11364:	e58d3014 	.word	0xe58d3014
   11368:	ebfffe69 	.word	0xebfffe69
   1136c:	e1500008 	.word	0xe1500008
   11370:	1a00003f 	.word	0x1a00003f
   11374:	e59d3014 	.word	0xe59d3014
   11378:	e1a0800a 	.word	0xe1a0800a
   1137c:	e58d3014 	.word	0xe58d3014
   11380:	e59d300c 	.word	0xe59d300c
   11384:	e1a01009 	.word	0xe1a01009
   11388:	e0830006 	.word	0xe0830006
   1138c:	eb000316 	.word	0xeb000316
   11390:	e1a02004 	.word	0xe1a02004
   11394:	e3a01030 	.word	0xe3a01030
   11398:	e1a00009 	.word	0xe1a00009
   1139c:	ebfffe5c 	.word	0xebfffe5c
   113a0:	e1500004 	.word	0xe1500004
   113a4:	1a000032 	.word	0x1a000032
   113a8:	e59d2018 	.word	0xe59d2018
   113ac:	e59d3014 	.word	0xe59d3014
   113b0:	e3520000 	.word	0xe3520000
   113b4:	1a00000f 	.word	0x1a00000f
   113b8:	e3550000 	.word	0xe3550000
   113bc:	1a000006 	.word	0x1a000006
   113c0:	e1a02008 	.word	0xe1a02008
   113c4:	e3a01020 	.word	0xe3a01020
   113c8:	e1a00009 	.word	0xe1a00009
   113cc:	ebfffe50 	.word	0xebfffe50
   113d0:	e1500008 	.word	0xe1500008
   113d4:	0a000021 	.word	0x0a000021
   113d8:	ea000025 	.word	0xea000025
   113dc:	e1a02009 	.word	0xe1a02009
   113e0:	e1a01005 	.word	0xe1a01005
   113e4:	e1a00003 	.word	0xe1a00003
   113e8:	eb001c75 	.word	0xeb001c75
   113ec:	e1500005 	.word	0xe1500005
   113f0:	0afffff2 	.word	0x0afffff2
   113f4:	ea00001e 	.word	0xea00001e
   113f8:	e28d4f56 	.word	0xe28d4f56
   113fc:	e3a03000 	.word	0xe3a03000
   11400:	e28da018 	.word	0xe28da018
   11404:	e28d60d4 	.word	0xe28d60d4
   11408:	e524313c 	.word	0xe524313c
   1140c:	e3550000 	.word	0xe3550000
   11410:	0affffea 	.word	0x0affffea
   11414:	e3550080 	.word	0xe3550080
   11418:	e1a03004 	.word	0xe1a03004
   1141c:	31a02005 	.word	0x31a02005
   11420:	23a02080 	.word	0x23a02080
   11424:	e1a0100a 	.word	0xe1a0100a
   11428:	e1a00006 	.word	0xe1a00006
   1142c:	eb0018b3 	.word	0xeb0018b3
   11430:	e2503000 	.word	0xe2503000
   11434:	0a000007 	.word	0x0a000007
   11438:	e1a01003 	.word	0xe1a01003
   1143c:	e1a02009 	.word	0xe1a02009
   11440:	e1a00006 	.word	0xe1a00006
   11444:	e58d3014 	.word	0xe58d3014
   11448:	eb001c5d 	.word	0xeb001c5d
   1144c:	e59d3014 	.word	0xe59d3014
   11450:	e1500003 	.word	0xe1500003
   11454:	1a000006 	.word	0x1a000006
   11458:	e0635005 	.word	0xe0635005
   1145c:	eaffffea 	.word	0xeaffffea
   11460:	e59d4038 	.word	0xe59d4038
   11464:	e1a00004 	.word	0xe1a00004
   11468:	eafffe83 	.word	0xeafffe83
   1146c:	e2844002 	.word	0xe2844002
   11470:	eafffe81 	.word	0xeafffe81
   11474:	e3e07000 	.word	0xe3e07000
   11478:	e59d3008 	.word	0xe59d3008
   1147c:	e59d2154 	.word	0xe59d2154
   11480:	e5933000 	.word	0xe5933000
   11484:	e1a00007 	.word	0xe1a00007
   11488:	e1520003 	.word	0xe1520003
   1148c:	0a000002 	.word	0x0a000002
   11490:	ebfffb16 	.word	0xebfffb16
   11494:	e3a06006 	.word	0xe3a06006
   11498:	eaffff09 	.word	0xeaffff09
   1149c:	e28ddf57 	.word	0xe28ddf57
   114a0:	e8bd8ff0 	.word	0xe8bd8ff0
   114a4:	0005d7a4 	.word	0x0005d7a4
   114a8:	0000002c 	.word	0x0000002c
   114ac:	0000d898 	.word	0x0000d898
   114b0:	0000d89d 	.word	0x0000d89d
   114b4:	0000d780 	.word	0x0000d780
   114b8:	0000d617 	.word	0x0000d617
   114bc:	fffffc38 	.word	0xfffffc38
   114c0:	0000d4e1 	.word	0x0000d4e1
   114c4:	0005d388 	.word	0x0005d388
   114c8:	0005d4dc 	.word	0x0005d4dc
   114cc:	0005fbe0 	.word	0x0005fbe0

000114d0 <_ppfs_init>:
   114d0:	e92d407f 	.word	0xe92d407f
   114d4:	e59f60ec 	.word	0xe59f60ec
   114d8:	e1a04000 	.word	0xe1a04000
   114dc:	e1a05001 	.word	0xe1a05001
   114e0:	e3a02098 	.word	0xe3a02098
   114e4:	e3a01000 	.word	0xe3a01000
   114e8:	eb0002fc 	.word	0xeb0002fc
   114ec:	e5943018 	.word	0xe5943018
   114f0:	e08f6006 	.word	0xe08f6006
   114f4:	e2433001 	.word	0xe2433001
   114f8:	e5843018 	.word	0xe5843018
   114fc:	e59f30c8 	.word	0xe59f30c8
   11500:	e5845000 	.word	0xe5845000
   11504:	e7963003 	.word	0xe7963003
   11508:	e5933000 	.word	0xe5933000
   1150c:	e5d33920 	.word	0xe5d33920
   11510:	e3530000 	.word	0xe3530000
   11514:	0a00000b 	.word	0x0a00000b
   11518:	e3a00000 	.word	0xe3a00000
   1151c:	e28d3008 	.word	0xe28d3008
   11520:	e3e02000 	.word	0xe3e02000
   11524:	e28d1004 	.word	0xe28d1004
   11528:	e58d0008 	.word	0xe58d0008
   1152c:	e58d5004 	.word	0xe58d5004
   11530:	eb001867 	.word	0xeb001867
   11534:	e3700001 	.word	0xe3700001
   11538:	059f3090 	.word	0x059f3090
   1153c:	008f3003 	.word	0x008f3003
   11540:	05843000 	.word	0x05843000
   11544:	0a00001d 	.word	0x0a00001d
   11548:	e2842028 	.word	0xe2842028
   1154c:	e3a03009 	.word	0xe3a03009
   11550:	e3a01008 	.word	0xe3a01008
   11554:	e2533001 	.word	0xe2533001
   11558:	e5821000 	.word	0xe5821000
   1155c:	e2822004 	.word	0xe2822004
   11560:	1afffffb 	.word	0x1afffffb
   11564:	e1a03005 	.word	0xe1a03005
   11568:	e5d30000 	.word	0xe5d30000
   1156c:	e3500000 	.word	0xe3500000
   11570:	0a00000f 	.word	0x0a00000f
   11574:	e3500025 	.word	0xe3500025
   11578:	1a00000b 	.word	0x1a00000b
   1157c:	e2832001 	.word	0xe2832001
   11580:	e5d33001 	.word	0xe5d33001
   11584:	e3530025 	.word	0xe3530025
   11588:	0a000006 	.word	0x0a000006
   1158c:	e5842000 	.word	0xe5842000
   11590:	e1a00004 	.word	0xe1a00004
   11594:	eb000074 	.word	0xeb000074
   11598:	e3500000 	.word	0xe3500000
   1159c:	ba000006 	.word	0xba000006
   115a0:	e5943000 	.word	0xe5943000
   115a4:	eaffffef 	.word	0xeaffffef
   115a8:	e1a03002 	.word	0xe1a03002
   115ac:	e2833001 	.word	0xe2833001
   115b0:	eaffffec 	.word	0xeaffffec
   115b4:	e5845000 	.word	0xe5845000
   115b8:	ea000000 	.word	0xea000000
   115bc:	e3e00000 	.word	0xe3e00000
   115c0:	e28dd010 	.word	0xe28dd010
   115c4:	e8bd8070 	.word	0xe8bd8070
   115c8:	0005d0a8 	.word	0x0005d0a8
   115cc:	000000a8 	.word	0x000000a8
   115d0:	0000d1dc 	.word	0x0000d1dc

000115d4 <_ppfs_prepargs>:
   115d4:	e92d4070 	.word	0xe92d4070
   115d8:	e5905018 	.word	0xe5905018
   115dc:	e1a04000 	.word	0xe1a04000
   115e0:	e3550000 	.word	0xe3550000
   115e4:	e580104c 	.word	0xe580104c
   115e8:	d8bd8070 	.word	0xd8bd8070
   115ec:	e3a03000 	.word	0xe3a03000
   115f0:	e580501c 	.word	0xe580501c
   115f4:	e5803018 	.word	0xe5803018
   115f8:	e5803004 	.word	0xe5803004
   115fc:	e5803008 	.word	0xe5803008
   11600:	eb000001 	.word	0xeb000001
   11604:	e5845018 	.word	0xe5845018
   11608:	e8bd8070 	.word	0xe8bd8070

0001160c <_ppfs_setargs>:
   1160c:	e5903018 	.word	0xe5903018
   11610:	e92d4030 	.word	0xe92d4030
   11614:	e3530000 	.word	0xe3530000
   11618:	e2802050 	.word	0xe2802050
   1161c:	e990000a 	.word	0xe990000a
   11620:	1a00003a 	.word	0x1a00003a
   11624:	e3530102 	.word	0xe3530102
   11628:	0590304c 	.word	0x0590304c
   1162c:	0283c004 	.word	0x0283c004
   11630:	05933000 	.word	0x05933000
   11634:	0580c04c 	.word	0x0580c04c
   11638:	05803050 	.word	0x05803050
   1163c:	05803008 	.word	0x05803008
   11640:	e3510102 	.word	0xe3510102
   11644:	0590304c 	.word	0x0590304c
   11648:	02831004 	.word	0x02831004
   1164c:	05933000 	.word	0x05933000
   11650:	0580104c 	.word	0x0580104c
   11654:	e59f110c 	.word	0xe59f110c
   11658:	05803050 	.word	0x05803050
   1165c:	05803004 	.word	0x05803004
   11660:	e3a03000 	.word	0xe3a03000
   11664:	e590c01c 	.word	0xe590c01c
   11668:	e153000c 	.word	0xe153000c
   1166c:	aa000031 	.word	0xaa000031
   11670:	e283c001 	.word	0xe283c001
   11674:	e283300a 	.word	0xe283300a
   11678:	e790e103 	.word	0xe790e103
   1167c:	e35e0008 	.word	0xe35e0008
   11680:	0a000020 	.word	0x0a000020
   11684:	e590304c 	.word	0xe590304c
   11688:	ca000004 	.word	0xca000004
   1168c:	e35e0002 	.word	0xe35e0002
   11690:	0a000017 	.word	0x0a000017
   11694:	da000016 	.word	0xda000016
   11698:	e35e0007 	.word	0xe35e0007
   1169c:	ea000005 	.word	0xea000005
   116a0:	e35e0b01 	.word	0xe35e0b01
   116a4:	0a000012 	.word	0x0a000012
   116a8:	da000011 	.word	0xda000011
   116ac:	e35e0b02 	.word	0xe35e0b02
   116b0:	0a000008 	.word	0x0a000008
   116b4:	e15e0001 	.word	0xe15e0001
   116b8:	1a00000d 	.word	0x1a00000d
   116bc:	e2833007 	.word	0xe2833007
   116c0:	e3c33007 	.word	0xe3c33007
   116c4:	e283e008 	.word	0xe283e008
   116c8:	e580e04c 	.word	0xe580e04c
   116cc:	e1c340d0 	.word	0xe1c340d0
   116d0:	e1c240f0 	.word	0xe1c240f0
   116d4:	ea00000a 	.word	0xea00000a
   116d8:	e2833007 	.word	0xe2833007
   116dc:	e3c33007 	.word	0xe3c33007
   116e0:	e1c340d0 	.word	0xe1c340d0
   116e4:	e283e008 	.word	0xe283e008
   116e8:	e580e04c 	.word	0xe580e04c
   116ec:	e1c240f0 	.word	0xe1c240f0
   116f0:	ea000003 	.word	0xea000003
   116f4:	e283e004 	.word	0xe283e004
   116f8:	e580e04c 	.word	0xe580e04c
   116fc:	e5933000 	.word	0xe5933000
   11700:	e5823000 	.word	0xe5823000
   11704:	e2822008 	.word	0xe2822008
   11708:	e1a0300c 	.word	0xe1a0300c
   1170c:	eaffffd4 	.word	0xeaffffd4
   11710:	e3530102 	.word	0xe3530102
   11714:	05d03024 	.word	0x05d03024
   11718:	0243321e 	.word	0x0243321e
   1171c:	07923183 	.word	0x07923183
   11720:	05803008 	.word	0x05803008
   11724:	e3510102 	.word	0xe3510102
   11728:	05d03025 	.word	0x05d03025
   1172c:	0243321e 	.word	0x0243321e
   11730:	07923183 	.word	0x07923183
   11734:	05803004 	.word	0x05803004
   11738:	e5903008 	.word	0xe5903008
   1173c:	e3530000 	.word	0xe3530000
   11740:	a8bd8030 	.word	0xa8bd8030
   11744:	e2633000 	.word	0xe2633000
   11748:	e5803008 	.word	0xe5803008
   1174c:	e5903010 	.word	0xe5903010
   11750:	e3c33001 	.word	0xe3c33001
   11754:	e3833008 	.word	0xe3833008
   11758:	e5803010 	.word	0xe5803010
   1175c:	e3a03020 	.word	0xe3a03020
   11760:	e5803014 	.word	0xe5803014
   11764:	e8bd8030 	.word	0xe8bd8030
   11768:	00000807 	.word	0x00000807

0001176c <_ppfs_parsespec>:
   1176c:	e59f35b4 	.word	0xe59f35b4
   11770:	e59f25b4 	.word	0xe59f25b4
   11774:	e08f3003 	.word	0xe08f3003
   11778:	e92d4ff0 	.word	0xe92d4ff0
   1177c:	e7932002 	.word	0xe7932002
   11780:	e24dd05c 	.word	0xe24dd05c
   11784:	e3a01008 	.word	0xe3a01008
   11788:	e5923000 	.word	0xe5923000
   1178c:	e58d1018 	.word	0xe58d1018
   11790:	e58d101c 	.word	0xe58d101c
   11794:	e5901010 	.word	0xe5901010
   11798:	e58d3054 	.word	0xe58d3054
   1179c:	e2111080 	.word	0xe2111080
   117a0:	e3a03000 	.word	0xe3a03000
   117a4:	e58d2004 	.word	0xe58d2004
   117a8:	e1a05000 	.word	0xe1a05000
   117ac:	e58d300c 	.word	0xe58d300c
   117b0:	e58d3010 	.word	0xe58d3010
   117b4:	e5906018 	.word	0xe5906018
   117b8:	e5902000 	.word	0xe5902000
   117bc:	0a000011 	.word	0x0a000011
   117c0:	e243c107 	.word	0xe243c107
   117c4:	e7d2010c 	.word	0xe7d2010c
   117c8:	e28de058 	.word	0xe28de058
   117cc:	e08ee003 	.word	0xe08ee003
   117d0:	e54e0024 	.word	0xe54e0024
   117d4:	e792c10c 	.word	0xe792c10c
   117d8:	e150000c 	.word	0xe150000c
   117dc:	0a000001 	.word	0x0a000001
   117e0:	e3e00000 	.word	0xe3e00000
   117e4:	ea000147 	.word	0xea000147
   117e8:	e3500000 	.word	0xe3500000
   117ec:	e2833001 	.word	0xe2833001
   117f0:	0a000001 	.word	0x0a000001
   117f4:	e3530020 	.word	0xe3530020
   117f8:	1afffff0 	.word	0x1afffff0
   117fc:	e3a03000 	.word	0xe3a03000
   11800:	e28d2035 	.word	0xe28d2035
   11804:	e5cd3053 	.word	0xe5cd3053
   11808:	e59f7520 	.word	0xe59f7520
   1180c:	e59f8520 	.word	0xe59f8520
   11810:	e3a0c000 	.word	0xe3a0c000
   11814:	e1a0e00c 	.word	0xe1a0e00c
   11818:	e08f7007 	.word	0xe08f7007
   1181c:	e08f8008 	.word	0xe08f8008
   11820:	e5d23000 	.word	0xe5d23000
   11824:	e353002a 	.word	0xe353002a
   11828:	11a04002 	.word	0x11a04002
   1182c:	1a000007 	.word	0x1a000007
   11830:	e35c0000 	.word	0xe35c0000
   11834:	e28d0058 	.word	0xe28d0058
   11838:	13a03004 	.word	0x13a03004
   1183c:	03a03000 	.word	0x03a03000
   11840:	e0803003 	.word	0xe0803003
   11844:	e2824001 	.word	0xe2824001
   11848:	e3a00000 	.word	0xe3a00000
   1184c:	e5030040 	.word	0xe5030040
   11850:	e3a03000 	.word	0xe3a03000
   11854:	e3a0b00a 	.word	0xe3a0b00a
   11858:	e5d40000 	.word	0xe5d40000
   1185c:	e597a000 	.word	0xe597a000
   11860:	e1a09080 	.word	0xe1a09080
   11864:	e19a90b9 	.word	0xe19a90b9
   11868:	e3190008 	.word	0xe3190008
   1186c:	0a00000d 	.word	0x0a00000d
   11870:	e59f94c0 	.word	0xe59f94c0
   11874:	e1530009 	.word	0xe1530009
   11878:	da000004 	.word	0xda000004
   1187c:	e2899001 	.word	0xe2899001
   11880:	e1530009 	.word	0xe1530009
   11884:	1a000004 	.word	0x1a000004
   11888:	e3500037 	.word	0xe3500037
   1188c:	ca000002 	.word	0xca000002
   11890:	e2400030 	.word	0xe2400030
   11894:	e023039b 	.word	0xe023039b
   11898:	ea000000 	.word	0xea000000
   1189c:	e3e03102 	.word	0xe3e03102
   118a0:	e2844001 	.word	0xe2844001
   118a4:	eaffffeb 	.word	0xeaffffeb
   118a8:	e5529001 	.word	0xe5529001
   118ac:	e3590025 	.word	0xe3590025
   118b0:	1a000030 	.word	0x1a000030
   118b4:	e3530000 	.word	0xe3530000
   118b8:	e2409024 	.word	0xe2409024
   118bc:	e16f9f19 	.word	0xe16f9f19
   118c0:	e1a092a9 	.word	0xe1a092a9
   118c4:	d3a09000 	.word	0xd3a09000
   118c8:	e3590000 	.word	0xe3590000
   118cc:	0a000006 	.word	0x0a000006
   118d0:	e3560000 	.word	0xe3560000
   118d4:	e2842001 	.word	0xe2842001
   118d8:	0affffc0 	.word	0x0affffc0
   118dc:	e1560003 	.word	0xe1560003
   118e0:	e58d3014 	.word	0xe58d3014
   118e4:	b1a06003 	.word	0xb1a06003
   118e8:	ea00000c 	.word	0xea00000c
   118ec:	e3560000 	.word	0xe3560000
   118f0:	da000002 	.word	0xda000002
   118f4:	e350006d 	.word	0xe350006d
   118f8:	0a00001e 	.word	0x0a00001e
   118fc:	eaffffb7 	.word	0xeaffffb7
   11900:	e1540002 	.word	0xe1540002
   11904:	9a000004 	.word	0x9a000004
   11908:	e5d20000 	.word	0xe5d20000
   1190c:	e1a06009 	.word	0xe1a06009
   11910:	e3500030 	.word	0xe3500030
   11914:	1a000017 	.word	0x1a000017
   11918:	ea000000 	.word	0xea000000
   1191c:	e1a06009 	.word	0xe1a06009
   11920:	e1a04002 	.word	0xe1a04002
   11924:	e3a09001 	.word	0xe3a09001
   11928:	e1a00008 	.word	0xe1a00008
   1192c:	e5d4a000 	.word	0xe5d4a000
   11930:	e5d03000 	.word	0xe5d03000
   11934:	e2802001 	.word	0xe2802001
   11938:	e15a0003 	.word	0xe15a0003
   1193c:	02844001 	.word	0x02844001
   11940:	01811009 	.word	0x01811009
   11944:	0afffff6 	.word	0x0afffff6
   11948:	e5d03001 	.word	0xe5d03001
   1194c:	e1a09089 	.word	0xe1a09089
   11950:	e3530000 	.word	0xe3530000
   11954:	e1a00002 	.word	0xe1a00002
   11958:	1afffff3 	.word	0x1afffff3
   1195c:	e201000a 	.word	0xe201000a
   11960:	e1c110a0 	.word	0xe1c110a0
   11964:	e5540001 	.word	0xe5540001
   11968:	e3500025 	.word	0xe3500025
   1196c:	0a000001 	.word	0x0a000001
   11970:	e1a02004 	.word	0xe1a02004
   11974:	eaffffa9 	.word	0xeaffffa9
   11978:	e5d20000 	.word	0xe5d20000
   1197c:	e350002a 	.word	0xe350002a
   11980:	1a000016 	.word	0x1a000016
   11984:	e3560000 	.word	0xe3560000
   11988:	0a000010 	.word	0x0a000010
   1198c:	e2840001 	.word	0xe2840001
   11990:	e5d44000 	.word	0xe5d44000
   11994:	e3530000 	.word	0xe3530000
   11998:	c3a02000 	.word	0xc3a02000
   1199c:	d3a02001 	.word	0xd3a02001
   119a0:	e3540024 	.word	0xe3540024
   119a4:	13822001 	.word	0x13822001
   119a8:	e3520000 	.word	0xe3520000
   119ac:	1affff8b 	.word	0x1affff8b
   119b0:	e35c0000 	.word	0xe35c0000
   119b4:	e28d4058 	.word	0xe28d4058
   119b8:	13a02004 	.word	0x13a02004
   119bc:	03a02000 	.word	0x03a02000
   119c0:	e0842002 	.word	0xe0842002
   119c4:	e502304c 	.word	0xe502304c
   119c8:	e1a04000 	.word	0xe1a04000
   119cc:	ea000002 	.word	0xea000002
   119d0:	e2822001 	.word	0xe2822001
   119d4:	e1540002 	.word	0xe1540002
   119d8:	1affff80 	.word	0x1affff80
   119dc:	e3a03102 	.word	0xe3a03102
   119e0:	e35c0000 	.word	0xe35c0000
   119e4:	1a000006 	.word	0x1a000006
   119e8:	e5d42000 	.word	0xe5d42000
   119ec:	e352002e 	.word	0xe352002e
   119f0:	1a000006 	.word	0x1a000006
   119f4:	e2844001 	.word	0xe2844001
   119f8:	e1a0e003 	.word	0xe1a0e003
   119fc:	e3e0c000 	.word	0xe3e0c000
   11a00:	eaffffda 	.word	0xeaffffda
   11a04:	e1a07003 	.word	0xe1a07003
   11a08:	e1a0300e 	.word	0xe1a0300e
   11a0c:	ea000000 	.word	0xea000000
   11a10:	e3e07000 	.word	0xe3e07000
   11a14:	e59f2320 	.word	0xe59f2320
   11a18:	e08f2002 	.word	0xe08f2002
   11a1c:	e5d4c000 	.word	0xe5d4c000
   11a20:	e5d20000 	.word	0xe5d20000
   11a24:	e15c0000 	.word	0xe15c0000
   11a28:	02844001 	.word	0x02844001
   11a2c:	0a000002 	.word	0x0a000002
   11a30:	e5f20001 	.word	0xe5f20001
   11a34:	e3500000 	.word	0xe3500000
   11a38:	1afffff7 	.word	0x1afffff7
   11a3c:	e59f02fc 	.word	0xe59f02fc
   11a40:	e08f0000 	.word	0xe08f0000
   11a44:	e0600002 	.word	0xe0600002
   11a48:	e3500001 	.word	0xe3500001
   11a4c:	ca000004 	.word	0xca000004
   11a50:	e5d4c000 	.word	0xe5d4c000
   11a54:	e5d20000 	.word	0xe5d20000
   11a58:	e15c0000 	.word	0xe15c0000
   11a5c:	02822009 	.word	0x02822009
   11a60:	02844001 	.word	0x02844001
   11a64:	e5d40000 	.word	0xe5d40000
   11a68:	e5d22009 	.word	0xe5d22009
   11a6c:	e3500000 	.word	0xe3500000
   11a70:	e1a02402 	.word	0xe1a02402
   11a74:	0affff59 	.word	0x0affff59
   11a78:	e59fc2c4 	.word	0xe59fc2c4
   11a7c:	e08fc00c 	.word	0xe08fc00c
   11a80:	e5dce000 	.word	0xe5dce000
   11a84:	e15e0000 	.word	0xe15e0000
   11a88:	1a00001a 	.word	0x1a00001a
   11a8c:	e59f02b4 	.word	0xe59f02b4
   11a90:	e08f0000 	.word	0xe08f0000
   11a94:	e060c00c 	.word	0xe060c00c
   11a98:	e35c0011 	.word	0xe35c0011
   11a9c:	da000001 	.word	0xda000001
   11aa0:	e3120b01 	.word	0xe3120b01
   11aa4:	124cc002 	.word	0x124cc002
   11aa8:	e59f029c 	.word	0xe59f029c
   11aac:	e585c020 	.word	0xe585c020
   11ab0:	e08f0000 	.word	0xe08f0000
   11ab4:	e2800013 	.word	0xe2800013
   11ab8:	e5f0e001 	.word	0xe5f0e001
   11abc:	e15c000e 	.word	0xe15c000e
   11ac0:	cafffffc 	.word	0xcafffffc
   11ac4:	e59fc284 	.word	0xe59fc284
   11ac8:	e08fc00c 	.word	0xe08fc00c
   11acc:	e28ce014 	.word	0xe28ce014
   11ad0:	e06e0000 	.word	0xe06e0000
   11ad4:	e08c0080 	.word	0xe08c0080
   11ad8:	e1d0c3f6 	.word	0xe1d0c3f6
   11adc:	e1d004f6 	.word	0xe1d004f6
   11ae0:	e18cc002 	.word	0xe18cc002
   11ae4:	e000000c 	.word	0xe000000c
   11ae8:	e59fc264 	.word	0xe59fc264
   11aec:	e58d0020 	.word	0xe58d0020
   11af0:	e08fc00c 	.word	0xe08fc00c
   11af4:	ea000002 	.word	0xea000002
   11af8:	e5fce001 	.word	0xe5fce001
   11afc:	e35e0000 	.word	0xe35e0000
   11b00:	1affffde 	.word	0x1affffde
   11b04:	e5d40000 	.word	0xe5d40000
   11b08:	e3110004 	.word	0xe3110004
   11b0c:	e5853008 	.word	0xe5853008
   11b10:	e2022c0f 	.word	0xe2022c0f
   11b14:	13a03030 	.word	0x13a03030
   11b18:	03a03020 	.word	0x03a03020
   11b1c:	e3c11004 	.word	0xe3c11004
   11b20:	e5853014 	.word	0xe5853014
   11b24:	e1821001 	.word	0xe1821001
   11b28:	e3a03001 	.word	0xe3a03001
   11b2c:	e585000c 	.word	0xe585000c
   11b30:	e5857004 	.word	0xe5857004
   11b34:	e5851010 	.word	0xe5851010
   11b38:	e585301c 	.word	0xe585301c
   11b3c:	e5dc3000 	.word	0xe5dc3000
   11b40:	e3530000 	.word	0xe3530000
   11b44:	1a00001f 	.word	0x1a00001f
   11b48:	e5d42000 	.word	0xe5d42000
   11b4c:	e352006d 	.word	0xe352006d
   11b50:	03a02014 	.word	0x03a02014
   11b54:	05852020 	.word	0x05852020
   11b58:	0585301c 	.word	0x0585301c
   11b5c:	0a000019 	.word	0x0a000019
   11b60:	e3a03015 	.word	0xe3a03015
   11b64:	e5853020 	.word	0xe5853020
   11b68:	e59f31e8 	.word	0xe59f31e8
   11b6c:	e79f2003 	.word	0xe79f2003
   11b70:	e1a03002 	.word	0xe1a03002
   11b74:	e282100a 	.word	0xe282100a
   11b78:	e5d3c000 	.word	0xe5d3c000
   11b7c:	e5d40000 	.word	0xe5d40000
   11b80:	e15c0000 	.word	0xe15c0000
   11b84:	1a00000b 	.word	0x1a00000b
   11b88:	e0623003 	.word	0xe0623003
   11b8c:	e59f21c8 	.word	0xe59f21c8
   11b90:	e3a01005 	.word	0xe3a01005
   11b94:	e08f2002 	.word	0xe08f2002
   11b98:	e7923103 	.word	0xe7923103
   11b9c:	e2850004 	.word	0xe2850004
   11ba0:	e28d2020 	.word	0xe28d2020
   11ba4:	e12fff33 	.word	0xe12fff33
   11ba8:	e3500005 	.word	0xe3500005
   11bac:	e585001c 	.word	0xe585001c
   11bb0:	da000004 	.word	0xda000004
   11bb4:	eaffff09 	.word	0xeaffff09
   11bb8:	e2833001 	.word	0xe2833001
   11bbc:	e1530001 	.word	0xe1530001
   11bc0:	3affffec 	.word	0x3affffec
   11bc4:	eaffff05 	.word	0xeaffff05
   11bc8:	e3560000 	.word	0xe3560000
   11bcc:	da00003b 	.word	0xda00003b
   11bd0:	e59fc188 	.word	0xe59fc188
   11bd4:	e59f8188 	.word	0xe59f8188
   11bd8:	e59f9188 	.word	0xe59f9188
   11bdc:	e08fc00c 	.word	0xe08fc00c
   11be0:	e08f8008 	.word	0xe08f8008
   11be4:	e3a02000 	.word	0xe3a02000
   11be8:	e08f9009 	.word	0xe08f9009
   11bec:	e28ce01e 	.word	0xe28ce01e
   11bf0:	e288a01e 	.word	0xe288a01e
   11bf4:	e3520002 	.word	0xe3520002
   11bf8:	d28d3058 	.word	0xd28d3058
   11bfc:	d0833102 	.word	0xd0833102
   11c00:	d513304c 	.word	0xd513304c
   11c04:	c59d1014 	.word	0xc59d1014
   11c08:	d0851002 	.word	0xd0851002
   11c0c:	c2423002 	.word	0xc2423002
   11c10:	d5c13024 	.word	0xd5c13024
   11c14:	c0833001 	.word	0xc0833001
   11c18:	d20330ff 	.word	0xd20330ff
   11c1c:	e1530006 	.word	0xe1530006
   11c20:	da000002 	.word	0xda000002
   11c24:	e3530009 	.word	0xe3530009
   11c28:	cafffeec 	.word	0xcafffeec
   11c2c:	e1a06003 	.word	0xe1a06003
   11c30:	e0851103 	.word	0xe0851103
   11c34:	e5917024 	.word	0xe5917024
   11c38:	e28d1058 	.word	0xe28d1058
   11c3c:	e0811102 	.word	0xe0811102
   11c40:	e5110040 	.word	0xe5110040
   11c44:	e3500008 	.word	0xe3500008
   11c48:	0a000016 	.word	0x0a000016
   11c4c:	e3570008 	.word	0xe3570008
   11c50:	11570000 	.word	0x11570000
   11c54:	0a000011 	.word	0x0a000011
   11c58:	e2891036 	.word	0xe2891036
   11c5c:	e171b0f2 	.word	0xe171b0f2
   11c60:	e15b0007 	.word	0xe15b0007
   11c64:	1151000e 	.word	0x1151000e
   11c68:	8afffffb 	.word	0x8afffffb
   11c6c:	e06e1001 	.word	0xe06e1001
   11c70:	e08c10c1 	.word	0xe08c10c1
   11c74:	e5d17056 	.word	0xe5d17056
   11c78:	e28c1036 	.word	0xe28c1036
   11c7c:	e171b0f2 	.word	0xe171b0f2
   11c80:	e15b0000 	.word	0xe15b0000
   11c84:	1151000a 	.word	0x1151000a
   11c88:	8afffffb 	.word	0x8afffffb
   11c8c:	e06e1001 	.word	0xe06e1001
   11c90:	e08810c1 	.word	0xe08810c1
   11c94:	e5d11056 	.word	0xe5d11056
   11c98:	e1570001 	.word	0xe1570001
   11c9c:	ca000001 	.word	0xca000001
   11ca0:	e0853103 	.word	0xe0853103
   11ca4:	e5830024 	.word	0xe5830024
   11ca8:	e595301c 	.word	0xe595301c
   11cac:	e2822001 	.word	0xe2822001
   11cb0:	e2833001 	.word	0xe2833001
   11cb4:	e1530002 	.word	0xe1530002
   11cb8:	aaffffcd 	.word	0xaaffffcd
   11cbc:	ea000006 	.word	0xea000006
   11cc0:	e595201c 	.word	0xe595201c
   11cc4:	e3a03001 	.word	0xe3a03001
   11cc8:	e5c53026 	.word	0xe5c53026
   11ccc:	e1a02102 	.word	0xe1a02102
   11cd0:	e28d1020 	.word	0xe28d1020
   11cd4:	e2850028 	.word	0xe2850028
   11cd8:	eb0000fc 	.word	0xeb0000fc
   11cdc:	e5953010 	.word	0xe5953010
   11ce0:	e595001c 	.word	0xe595001c
   11ce4:	e3130080 	.word	0xe3130080
   11ce8:	128d3034 	.word	0x128d3034
   11cec:	10634004 	.word	0x10634004
   11cf0:	15953000 	.word	0x15953000
   11cf4:	02844001 	.word	0x02844001
   11cf8:	10834104 	.word	0x10834104
   11cfc:	e2800002 	.word	0xe2800002
   11d00:	e5856018 	.word	0xe5856018
   11d04:	e5854000 	.word	0xe5854000
   11d08:	e59d3004 	.word	0xe59d3004
   11d0c:	e59d2054 	.word	0xe59d2054
   11d10:	e5933000 	.word	0xe5933000
   11d14:	e1520003 	.word	0xe1520003
   11d18:	0a000000 	.word	0x0a000000
   11d1c:	ebfff8f3 	.word	0xebfff8f3
   11d20:	e28dd05c 	.word	0xe28dd05c
   11d24:	e8bd8ff0 	.word	0xe8bd8ff0
   11d28:	0005ce24 	.word	0x0005ce24
   11d2c:	0000002c 	.word	0x0000002c
   11d30:	0005cf90 	.word	0x0005cf90
   11d34:	0000cf95 	.word	0x0000cf95
   11d38:	0ccccccb 	.word	0x0ccccccb
   11d3c:	0000cd22 	.word	0x0000cd22
   11d40:	0000ccfa 	.word	0x0000ccfa
   11d44:	0000cd20 	.word	0x0000cd20
   11d48:	0000cd0c 	.word	0x0000cd0c
   11d4c:	0000cc8a 	.word	0x0000cc8a
   11d50:	0000cc72 	.word	0x0000cc72
   11d54:	0000ccac 	.word	0x0000ccac
   11d58:	0005cc04 	.word	0x0005cc04
   11d5c:	0005f2e0 	.word	0x0005f2e0
   11d60:	0000cb5e 	.word	0x0000cb5e
   11d64:	0000cb5a 	.word	0x0000cb5a
   11d68:	0000cb52 	.word	0x0000cb52

00011d6c <putchar>:
   11d6c:	e59f3160 	.word	0xe59f3160
   11d70:	e59f2160 	.word	0xe59f2160
   11d74:	e08f3003 	.word	0xe08f3003
   11d78:	e92d41f0 	.word	0xe92d41f0
   11d7c:	e7933002 	.word	0xe7933002
   11d80:	e1a06000 	.word	0xe1a06000
   11d84:	e5935000 	.word	0xe5935000
   11d88:	e5954048 	.word	0xe5954048
   11d8c:	e3540000 	.word	0xe3540000
   11d90:	0a00000b 	.word	0x0a00000b
   11d94:	e5953010 	.word	0xe5953010
   11d98:	e595201c 	.word	0xe595201c
   11d9c:	e1530002 	.word	0xe1530002
   11da0:	2a000004 	.word	0x2a000004
   11da4:	e2832001 	.word	0xe2832001
   11da8:	e5852010 	.word	0xe5852010
   11dac:	e5c30000 	.word	0xe5c30000
   11db0:	e20000ff 	.word	0xe20000ff
   11db4:	e8bd81f0 	.word	0xe8bd81f0
   11db8:	e1a01005 	.word	0xe1a01005
   11dbc:	e8bd41f0 	.word	0xe8bd41f0
   11dc0:	ea000045 	.word	0xea000045
   11dc4:	e5953054 	.word	0xe5953054
   11dc8:	eb000bc0 	.word	0xeb000bc0
   11dcc:	e2407e49 	.word	0xe2407e49
   11dd0:	e1530007 	.word	0xe1530007
   11dd4:	0a000010 	.word	0x0a000010
   11dd8:	e285804c 	.word	0xe285804c
   11ddc:	e3a01001 	.word	0xe3a01001
   11de0:	e1a02008 	.word	0xe1a02008
   11de4:	e5923000 	.word	0xe5923000
   11de8:	e1530004 	.word	0xe1530004
   11dec:	1a000005 	.word	0x1a000005
   11df0:	e1a00004 	.word	0xe1a00004
   11df4:	e3e03a0f 	.word	0xe3e03a0f
   11df8:	e1a0e00f 	.word	0xe1a0e00f
   11dfc:	e243f03f 	.word	0xe243f03f
   11e00:	3afffff7 	.word	0x3afffff7
   11e04:	e1a03004 	.word	0xe1a03004
   11e08:	e3530000 	.word	0xe3530000
   11e0c:	0a000001 	.word	0x0a000001
   11e10:	e1a00008 	.word	0xe1a00008
   11e14:	eb000879 	.word	0xeb000879
   11e18:	e5857054 	.word	0xe5857054
   11e1c:	e5953050 	.word	0xe5953050
   11e20:	e595201c 	.word	0xe595201c
   11e24:	e2833001 	.word	0xe2833001
   11e28:	e5853050 	.word	0xe5853050
   11e2c:	e5953010 	.word	0xe5953010
   11e30:	e1530002 	.word	0xe1530002
   11e34:	32832001 	.word	0x32832001
   11e38:	35852010 	.word	0x35852010
   11e3c:	35c36000 	.word	0x35c36000
   11e40:	320660ff 	.word	0x320660ff
   11e44:	3a000003 	.word	0x3a000003
   11e48:	e1a00006 	.word	0xe1a00006
   11e4c:	e1a01005 	.word	0xe1a01005
   11e50:	eb000021 	.word	0xeb000021
   11e54:	e1a06000 	.word	0xe1a06000
   11e58:	e5953050 	.word	0xe5953050
   11e5c:	e2433001 	.word	0xe2433001
   11e60:	e3530000 	.word	0xe3530000
   11e64:	e5853050 	.word	0xe5853050
   11e68:	1a000017 	.word	0x1a000017
   11e6c:	e285704c 	.word	0xe285704c
   11e70:	e5853054 	.word	0xe5853054
   11e74:	e3a01000 	.word	0xe3a01000
   11e78:	e1a02007 	.word	0xe1a02007
   11e7c:	e595404c 	.word	0xe595404c
   11e80:	e5923000 	.word	0xe5923000
   11e84:	e1530004 	.word	0xe1530004
   11e88:	1a000005 	.word	0x1a000005
   11e8c:	e1a00004 	.word	0xe1a00004
   11e90:	e3e03a0f 	.word	0xe3e03a0f
   11e94:	e1a0e00f 	.word	0xe1a0e00f
   11e98:	e243f03f 	.word	0xe243f03f
   11e9c:	3afffff7 	.word	0x3afffff7
   11ea0:	e1a03004 	.word	0xe1a03004
   11ea4:	e1530004 	.word	0xe1530004
   11ea8:	1afffff1 	.word	0x1afffff1
   11eac:	e3530001 	.word	0xe3530001
   11eb0:	da000005 	.word	0xda000005
   11eb4:	e1a00007 	.word	0xe1a00007
   11eb8:	e3a01081 	.word	0xe3a01081
   11ebc:	e3a02001 	.word	0xe3a02001
   11ec0:	e3a03000 	.word	0xe3a03000
   11ec4:	e3a070f0 	.word	0xe3a070f0
   11ec8:	ef000000 	.word	0xef000000
   11ecc:	e1a00006 	.word	0xe1a00006
   11ed0:	e8bd81f0 	.word	0xe8bd81f0
   11ed4:	0005c824 	.word	0x0005c824
   11ed8:	00000010 	.word	0x00000010

00011edc <__GI___fputc_unlocked>:
   11edc:	e92d4037 	.word	0xe92d4037
   11ee0:	e5913010 	.word	0xe5913010
   11ee4:	e591201c 	.word	0xe591201c
   11ee8:	e1a05000 	.word	0xe1a05000
   11eec:	e1530002 	.word	0xe1530002
   11ef0:	32832001 	.word	0x32832001
   11ef4:	35812010 	.word	0x35812010
   11ef8:	e1a04001 	.word	0xe1a04001
   11efc:	35c30000 	.word	0x35c30000
   11f00:	3a000020 	.word	0x3a000020
   11f04:	e1d130b0 	.word	0xe1d130b0
   11f08:	e20330c0 	.word	0xe20330c0
   11f0c:	e35300c0 	.word	0xe35300c0
   11f10:	1a000003 	.word	0x1a000003
   11f14:	e5943004 	.word	0xe5943004
   11f18:	e3730002 	.word	0xe3730002
   11f1c:	1a000006 	.word	0x1a000006
   11f20:	ea000018 	.word	0xea000018
   11f24:	e3a01080 	.word	0xe3a01080
   11f28:	e1a00004 	.word	0xe1a00004
   11f2c:	eb0019f2 	.word	0xeb0019f2
   11f30:	e3500000 	.word	0xe3500000
   11f34:	0afffff6 	.word	0x0afffff6
   11f38:	ea000028 	.word	0xea000028
   11f3c:	e594300c 	.word	0xe594300c
   11f40:	e5942008 	.word	0xe5942008
   11f44:	e1520003 	.word	0xe1520003
   11f48:	0a00001d 	.word	0x0a00001d
   11f4c:	e5942010 	.word	0xe5942010
   11f50:	e1520003 	.word	0xe1520003
   11f54:	0a00000d 	.word	0x0a00000d
   11f58:	e5943010 	.word	0xe5943010
   11f5c:	e2832001 	.word	0xe2832001
   11f60:	e5842010 	.word	0xe5842010
   11f64:	e20520ff 	.word	0xe20520ff
   11f68:	e5c32000 	.word	0xe5c32000
   11f6c:	e1d430b0 	.word	0xe1d430b0
   11f70:	e1a03423 	.word	0xe1a03423
   11f74:	e352000a 	.word	0xe352000a
   11f78:	13a03000 	.word	0x13a03000
   11f7c:	02033001 	.word	0x02033001
   11f80:	e3530000 	.word	0xe3530000
   11f84:	1a000006 	.word	0x1a000006
   11f88:	e20500ff 	.word	0xe20500ff
   11f8c:	ea000014 	.word	0xea000014
   11f90:	e1a00004 	.word	0xe1a00004
   11f94:	ebfffaeb 	.word	0xebfffaeb
   11f98:	e3500000 	.word	0xe3500000
   11f9c:	0affffed 	.word	0x0affffed
   11fa0:	ea00000e 	.word	0xea00000e
   11fa4:	e1a00004 	.word	0xe1a00004
   11fa8:	ebfffae6 	.word	0xebfffae6
   11fac:	e3500000 	.word	0xe3500000
   11fb0:	0afffff4 	.word	0x0afffff4
   11fb4:	e5943010 	.word	0xe5943010
   11fb8:	e2433001 	.word	0xe2433001
   11fbc:	e5843010 	.word	0xe5843010
   11fc0:	ea000006 	.word	0xea000006
   11fc4:	e28d1008 	.word	0xe28d1008
   11fc8:	e5615001 	.word	0xe5615001
   11fcc:	e3a02001 	.word	0xe3a02001
   11fd0:	e1a00004 	.word	0xe1a00004
   11fd4:	eb00181f 	.word	0xeb00181f
   11fd8:	e3500000 	.word	0xe3500000
   11fdc:	1affffe9 	.word	0x1affffe9
   11fe0:	e3e00000 	.word	0xe3e00000
   11fe4:	e28dd00c 	.word	0xe28dd00c
   11fe8:	e8bd8030 	.word	0xe8bd8030

00011fec <__GI_fputs_unlocked>:
   11fec:	e92d4070 	.word	0xe92d4070
   11ff0:	e1a06001 	.word	0xe1a06001
   11ff4:	e1a05000 	.word	0xe1a05000
   11ff8:	eb000060 	.word	0xeb000060
   11ffc:	e1a03006 	.word	0xe1a03006
   12000:	e3a01001 	.word	0xe3a01001
   12004:	e1a04000 	.word	0xe1a04000
   12008:	e1a02000 	.word	0xe1a02000
   1200c:	e1a00005 	.word	0xe1a00005
   12010:	eb000002 	.word	0xeb000002
   12014:	e1500004 	.word	0xe1500004
   12018:	13e00000 	.word	0x13e00000
   1201c:	e8bd8070 	.word	0xe8bd8070

00012020 <__GI_fwrite_unlocked>:
   12020:	e92d41f0 	.word	0xe92d41f0
   12024:	e1a04003 	.word	0xe1a04003
   12028:	e1d330b0 	.word	0xe1d330b0
   1202c:	e1a07000 	.word	0xe1a07000
   12030:	e20330c0 	.word	0xe20330c0
   12034:	e35300c0 	.word	0xe35300c0
   12038:	e1a05001 	.word	0xe1a05001
   1203c:	e1a06002 	.word	0xe1a06002
   12040:	1a000003 	.word	0x1a000003
   12044:	e3550000 	.word	0xe3550000
   12048:	13560000 	.word	0x13560000
   1204c:	1a000006 	.word	0x1a000006
   12050:	ea000019 	.word	0xea000019
   12054:	e3a01080 	.word	0xe3a01080
   12058:	e1a00004 	.word	0xe1a00004
   1205c:	eb0019a6 	.word	0xeb0019a6
   12060:	e3500000 	.word	0xe3500000
   12064:	0afffff6 	.word	0x0afffff6
   12068:	ea000013 	.word	0xea000013
   1206c:	e1a01005 	.word	0xe1a01005
   12070:	e3e00000 	.word	0xe3e00000
   12074:	eb002823 	.word	0xeb002823
   12078:	e1560000 	.word	0xe1560000
   1207c:	8a000006 	.word	0x8a000006
   12080:	e0010596 	.word	0xe0010596
   12084:	e1a02004 	.word	0xe1a02004
   12088:	e1a00007 	.word	0xe1a00007
   1208c:	eb00194c 	.word	0xeb00194c
   12090:	e1a01005 	.word	0xe1a01005
   12094:	eb00281b 	.word	0xeb00281b
   12098:	e8bd81f0 	.word	0xe8bd81f0
   1209c:	e1d430b0 	.word	0xe1d430b0
   120a0:	eb000b0a 	.word	0xeb000b0a
   120a4:	e3a02016 	.word	0xe3a02016
   120a8:	e3833008 	.word	0xe3833008
   120ac:	e1c430b0 	.word	0xe1c430b0
   120b0:	e59f300c 	.word	0xe59f300c
   120b4:	e79f3003 	.word	0xe79f3003
   120b8:	e7802003 	.word	0xe7802003
   120bc:	e3a00000 	.word	0xe3a00000
   120c0:	e8bd81f0 	.word	0xe8bd81f0
   120c4:	0005c54c 	.word	0x0005c54c
	...

000120d0 <__GI_memcpy>:
   120d0:	ea001ffe 	.word	0xea001ffe
   120d4:	e1a00000 	.word	0xe1a00000
   120d8:	e1a00000 	.word	0xe1a00000
   120dc:	e1a00000 	.word	0xe1a00000

000120e0 <__GI_memset>:
   120e0:	e1a03000 	.word	0xe1a03000
   120e4:	e3520008 	.word	0xe3520008
   120e8:	ba000016 	.word	0xba000016
   120ec:	e1811401 	.word	0xe1811401
   120f0:	e1811801 	.word	0xe1811801
   120f4:	e3130003 	.word	0xe3130003
   120f8:	14c31001 	.word	0x14c31001
   120fc:	12422001 	.word	0x12422001
   12100:	1afffffb 	.word	0x1afffffb
   12104:	e1a0c001 	.word	0xe1a0c001
   12108:	e3520008 	.word	0xe3520008
   1210c:	ba00000d 	.word	0xba00000d
   12110:	e8a31002 	.word	0xe8a31002
   12114:	e2422008 	.word	0xe2422008
   12118:	e3520008 	.word	0xe3520008
   1211c:	ba000009 	.word	0xba000009
   12120:	e8a31002 	.word	0xe8a31002
   12124:	e2422008 	.word	0xe2422008
   12128:	e3520008 	.word	0xe3520008
   1212c:	ba000005 	.word	0xba000005
   12130:	e8a31002 	.word	0xe8a31002
   12134:	e2422008 	.word	0xe2422008
   12138:	e3520008 	.word	0xe3520008
   1213c:	a8a31002 	.word	0xa8a31002
   12140:	a2422008 	.word	0xa2422008
   12144:	aaffffef 	.word	0xaaffffef
   12148:	e1b02002 	.word	0xe1b02002
   1214c:	01a0f00e 	.word	0x01a0f00e
   12150:	e2622007 	.word	0xe2622007
   12154:	e08ff102 	.word	0xe08ff102
   12158:	e1a00000 	.word	0xe1a00000
   1215c:	e4c31001 	.word	0xe4c31001
   12160:	e4c31001 	.word	0xe4c31001
   12164:	e4c31001 	.word	0xe4c31001
   12168:	e4c31001 	.word	0xe4c31001
   1216c:	e4c31001 	.word	0xe4c31001
   12170:	e4c31001 	.word	0xe4c31001
   12174:	e4c31001 	.word	0xe4c31001
   12178:	e1a0f00e 	.word	0xe1a0f00e
   1217c:	e1a00000 	.word	0xe1a00000

00012180 <__GI_strlen>:
   12180:	e3c01003 	.word	0xe3c01003
   12184:	e4912004 	.word	0xe4912004
   12188:	e2103003 	.word	0xe2103003
   1218c:	e2630000 	.word	0xe2630000
   12190:	0a000004 	.word	0x0a000004
   12194:	e38220ff 	.word	0xe38220ff
   12198:	e2533001 	.word	0xe2533001
   1219c:	c3822cff 	.word	0xc3822cff
   121a0:	e2533001 	.word	0xe2533001
   121a4:	c38228ff 	.word	0xc38228ff
   121a8:	e31200ff 	.word	0xe31200ff
   121ac:	13120cff 	.word	0x13120cff
   121b0:	131208ff 	.word	0x131208ff
   121b4:	131204ff 	.word	0x131204ff
   121b8:	12800004 	.word	0x12800004
   121bc:	14912004 	.word	0x14912004
   121c0:	1afffff8 	.word	0x1afffff8
   121c4:	e31200ff 	.word	0xe31200ff
   121c8:	12800001 	.word	0x12800001
   121cc:	13120cff 	.word	0x13120cff
   121d0:	12800001 	.word	0x12800001
   121d4:	131208ff 	.word	0x131208ff
   121d8:	12800001 	.word	0x12800001
   121dc:	e1a0f00e 	.word	0xe1a0f00e

000121e0 <__GI_strnlen>:
   121e0:	e3510000 	.word	0xe3510000
   121e4:	0a000030 	.word	0x0a000030
   121e8:	e0901001 	.word	0xe0901001
   121ec:	23e01000 	.word	0x23e01000
   121f0:	e1a03000 	.word	0xe1a03000
   121f4:	e3130003 	.word	0xe3130003
   121f8:	0a000008 	.word	0x0a000008
   121fc:	e5d32000 	.word	0xe5d32000
   12200:	e3520000 	.word	0xe3520000
   12204:	1a000003 	.word	0x1a000003
   12208:	e1530001 	.word	0xe1530001
   1220c:	90600003 	.word	0x90600003
   12210:	80600001 	.word	0x80600001
   12214:	e12fff1e 	.word	0xe12fff1e
   12218:	e2833001 	.word	0xe2833001
   1221c:	eafffff4 	.word	0xeafffff4
   12220:	e1a02003 	.word	0xe1a02003
   12224:	e52de004 	.word	0xe52de004
   12228:	e1520001 	.word	0xe1520001
   1222c:	2a00001a 	.word	0x2a00001a
   12230:	e5923000 	.word	0xe5923000
   12234:	e59fc078 	.word	0xe59fc078
   12238:	e282e004 	.word	0xe282e004
   1223c:	e083c00c 	.word	0xe083c00c
   12240:	e59f3070 	.word	0xe59f3070
   12244:	e003300c 	.word	0xe003300c
   12248:	e3530000 	.word	0xe3530000
   1224c:	0a00000e 	.word	0x0a00000e
   12250:	e5d23000 	.word	0xe5d23000
   12254:	e3530000 	.word	0xe3530000
   12258:	0a00000e 	.word	0x0a00000e
   1225c:	e5d23001 	.word	0xe5d23001
   12260:	e3530000 	.word	0xe3530000
   12264:	02823001 	.word	0x02823001
   12268:	0a00000b 	.word	0x0a00000b
   1226c:	e5d23002 	.word	0xe5d23002
   12270:	e3530000 	.word	0xe3530000
   12274:	02823002 	.word	0x02823002
   12278:	0a000007 	.word	0x0a000007
   1227c:	e5d23003 	.word	0xe5d23003
   12280:	e3530000 	.word	0xe3530000
   12284:	02823003 	.word	0x02823003
   12288:	0a000003 	.word	0x0a000003
   1228c:	e1a03001 	.word	0xe1a03001
   12290:	e1a0200e 	.word	0xe1a0200e
   12294:	eaffffe3 	.word	0xeaffffe3
   12298:	e1a03002 	.word	0xe1a03002
   1229c:	e1530001 	.word	0xe1530001
   122a0:	90600003 	.word	0x90600003
   122a4:	80600001 	.word	0x80600001
   122a8:	e49df004 	.word	0xe49df004
   122ac:	e1a00001 	.word	0xe1a00001
   122b0:	e12fff1e 	.word	0xe12fff1e
   122b4:	fefefeff 	.word	0xfefefeff
   122b8:	80808080 	.word	0x80808080

000122bc <__GI___glibc_strerror_r>:
   122bc:	e92d4010 	.word	0xe92d4010
   122c0:	e1a04001 	.word	0xe1a04001
   122c4:	eb000001 	.word	0xeb000001
   122c8:	e1a00004 	.word	0xe1a00004
   122cc:	e8bd8010 	.word	0xe8bd8010

000122d0 <__GI___xpg_strerror_r>:
   122d0:	e59f311c 	.word	0xe59f311c
   122d4:	e92d43f0 	.word	0xe92d43f0
   122d8:	e1a09002 	.word	0xe1a09002
   122dc:	e59f2114 	.word	0xe59f2114
   122e0:	e08f3003 	.word	0xe08f3003
   122e4:	e7938002 	.word	0xe7938002
   122e8:	e24dd044 	.word	0xe24dd044
   122ec:	e5983000 	.word	0xe5983000
   122f0:	e350007c 	.word	0xe350007c
   122f4:	e1a07001 	.word	0xe1a07001
   122f8:	e58d303c 	.word	0xe58d303c
   122fc:	8a00000b 	.word	0x8a00000b
   12300:	e59f50f4 	.word	0xe59f50f4
   12304:	e1a04000 	.word	0xe1a04000
   12308:	e08f5005 	.word	0xe08f5005
   1230c:	e3540000 	.word	0xe3540000
   12310:	e5d53000 	.word	0xe5d53000
   12314:	0a000003 	.word	0x0a000003
   12318:	e3530000 	.word	0xe3530000
   1231c:	02444001 	.word	0x02444001
   12320:	e2855001 	.word	0xe2855001
   12324:	eafffff8 	.word	0xeafffff8
   12328:	e3530000 	.word	0xe3530000
   1232c:	1a00000d 	.word	0x1a00000d
   12330:	e3e02009 	.word	0xe3e02009
   12334:	e3a03000 	.word	0xe3a03000
   12338:	e88d000c 	.word	0xe88d000c
   1233c:	e1a02000 	.word	0xe1a02000
   12340:	e1a03fc0 	.word	0xe1a03fc0
   12344:	e28d0039 	.word	0xe28d0039
   12348:	eb00194d 	.word	0xeb00194d
   1234c:	e59f10ac 	.word	0xe59f10ac
   12350:	e3a0200e 	.word	0xe3a0200e
   12354:	e08f1001 	.word	0xe08f1001
   12358:	e3a04016 	.word	0xe3a04016
   1235c:	e240500e 	.word	0xe240500e
   12360:	e1a00005 	.word	0xe1a00005
   12364:	ebffff59 	.word	0xebffff59
   12368:	e3570000 	.word	0xe3570000
   1236c:	e1a00005 	.word	0xe1a00005
   12370:	03a09000 	.word	0x03a09000
   12374:	ebffff81 	.word	0xebffff81
   12378:	e2806001 	.word	0xe2806001
   1237c:	e1560009 	.word	0xe1560009
   12380:	9a000004 	.word	0x9a000004
   12384:	e3590000 	.word	0xe3590000
   12388:	e1a06009 	.word	0xe1a06009
   1238c:	e3a04022 	.word	0xe3a04022
   12390:	0a00000b 	.word	0x0a00000b
   12394:	ea000001 	.word	0xea000001
   12398:	e3560000 	.word	0xe3560000
   1239c:	0a000006 	.word	0x0a000006
   123a0:	e1a02006 	.word	0xe1a02006
   123a4:	e1a01005 	.word	0xe1a01005
   123a8:	e1a00007 	.word	0xe1a00007
   123ac:	ebffff47 	.word	0xebffff47
   123b0:	e0876006 	.word	0xe0876006
   123b4:	e3a03000 	.word	0xe3a03000
   123b8:	e5463001 	.word	0xe5463001
   123bc:	e3540000 	.word	0xe3540000
   123c0:	0a000003 	.word	0x0a000003
   123c4:	e59f3038 	.word	0xe59f3038
   123c8:	eb000a40 	.word	0xeb000a40
   123cc:	e79f3003 	.word	0xe79f3003
   123d0:	e7804003 	.word	0xe7804003
   123d4:	e59d203c 	.word	0xe59d203c
   123d8:	e5983000 	.word	0xe5983000
   123dc:	e1a00004 	.word	0xe1a00004
   123e0:	e1520003 	.word	0xe1520003
   123e4:	0a000000 	.word	0x0a000000
   123e8:	ebfff740 	.word	0xebfff740
   123ec:	e28dd044 	.word	0xe28dd044
   123f0:	e8bd83f0 	.word	0xe8bd83f0
   123f4:	0005c2b8 	.word	0x0005c2b8
   123f8:	0000002c 	.word	0x0000002c
   123fc:	0000c9f0 	.word	0x0000c9f0
   12400:	0000c465 	.word	0x0000c465
   12404:	0005c234 	.word	0x0005c234

00012408 <__GI_isatty>:
   12408:	e59f3044 	.word	0xe59f3044
   1240c:	e59f2044 	.word	0xe59f2044
   12410:	e08f3003 	.word	0xe08f3003
   12414:	e92d4010 	.word	0xe92d4010
   12418:	e7934002 	.word	0xe7934002
   1241c:	e24dd040 	.word	0xe24dd040
   12420:	e5943000 	.word	0xe5943000
   12424:	e1a0100d 	.word	0xe1a0100d
   12428:	e58d303c 	.word	0xe58d303c
   1242c:	eb00000a 	.word	0xeb00000a
   12430:	e59d203c 	.word	0xe59d203c
   12434:	e5943000 	.word	0xe5943000
   12438:	e1520003 	.word	0xe1520003
   1243c:	e16f0f10 	.word	0xe16f0f10
   12440:	e1a002a0 	.word	0xe1a002a0
   12444:	0a000000 	.word	0x0a000000
   12448:	ebfff728 	.word	0xebfff728
   1244c:	e28dd040 	.word	0xe28dd040
   12450:	e8bd8010 	.word	0xe8bd8010
   12454:	0005c188 	.word	0x0005c188
   12458:	0000002c 	.word	0x0000002c

0001245c <__GI_tcgetattr>:
   1245c:	e59f3094 	.word	0xe59f3094
   12460:	e59f2094 	.word	0xe59f2094
   12464:	e08f3003 	.word	0xe08f3003
   12468:	e92d40f0 	.word	0xe92d40f0
   1246c:	e7935002 	.word	0xe7935002
   12470:	e24dd02c 	.word	0xe24dd02c
   12474:	e5953000 	.word	0xe5953000
   12478:	e1a04001 	.word	0xe1a04001
   1247c:	e1a0200d 	.word	0xe1a0200d
   12480:	e59f1078 	.word	0xe59f1078
   12484:	e58d3024 	.word	0xe58d3024
   12488:	eb000a70 	.word	0xeb000a70
   1248c:	e2506000 	.word	0xe2506000
   12490:	1a000010 	.word	0x1a000010
   12494:	e59d3000 	.word	0xe59d3000
   12498:	e3a02013 	.word	0xe3a02013
   1249c:	e5843000 	.word	0xe5843000
   124a0:	e59d3004 	.word	0xe59d3004
   124a4:	e28d1011 	.word	0xe28d1011
   124a8:	e5843004 	.word	0xe5843004
   124ac:	e59d3008 	.word	0xe59d3008
   124b0:	e2840011 	.word	0xe2840011
   124b4:	e5843008 	.word	0xe5843008
   124b8:	e59d300c 	.word	0xe59d300c
   124bc:	e584300c 	.word	0xe584300c
   124c0:	e5dd3010 	.word	0xe5dd3010
   124c4:	e5c43010 	.word	0xe5c43010
   124c8:	eb00206c 	.word	0xeb00206c
   124cc:	e3a0200d 	.word	0xe3a0200d
   124d0:	e1a01006 	.word	0xe1a01006
   124d4:	ebffff01 	.word	0xebffff01
   124d8:	e59d2024 	.word	0xe59d2024
   124dc:	e5953000 	.word	0xe5953000
   124e0:	e1a00006 	.word	0xe1a00006
   124e4:	e1520003 	.word	0xe1520003
   124e8:	0a000000 	.word	0x0a000000
   124ec:	ebfff6ff 	.word	0xebfff6ff
   124f0:	e28dd02c 	.word	0xe28dd02c
   124f4:	e8bd80f0 	.word	0xe8bd80f0
   124f8:	0005c134 	.word	0x0005c134
   124fc:	0000002c 	.word	0x0000002c
   12500:	00005401 	.word	0x00005401
   12504:	e1a03420 	.word	0xe1a03420
   12508:	e3530801 	.word	0xe3530801
   1250c:	2a000018 	.word	0x2a000018
   12510:	e2432c01 	.word	0xe2432c01
   12514:	e1a02822 	.word	0xe1a02822
   12518:	e2022008 	.word	0xe2022008
   1251c:	e1a03213 	.word	0xe1a03213
   12520:	e52de004 	.word	0xe52de004
   12524:	e243ea01 	.word	0xe243ea01
   12528:	e1a0e82e 	.word	0xe1a0e82e
   1252c:	e20ee004 	.word	0xe20ee004
   12530:	e1a03e13 	.word	0xe1a03e13
   12534:	e243c901 	.word	0xe243c901
   12538:	e1a0c82c 	.word	0xe1a0c82c
   1253c:	e20cc002 	.word	0xe20cc002
   12540:	e1a03c13 	.word	0xe1a03c13
   12544:	e082200e 	.word	0xe082200e
   12548:	e1e017a3 	.word	0xe1e017a3
   1254c:	e0013723 	.word	0xe0013723
   12550:	e082200c 	.word	0xe082200c
   12554:	e0622003 	.word	0xe0622003
   12558:	e1a01102 	.word	0xe1a01102
   1255c:	e2822013 	.word	0xe2822013
   12560:	e1a00230 	.word	0xe1a00230
   12564:	e2811054 	.word	0xe2811054
   12568:	e2000003 	.word	0xe2000003
   1256c:	e0810000 	.word	0xe0810000
   12570:	e49df004 	.word	0xe49df004
   12574:	e3a0005f 	.word	0xe3a0005f
   12578:	e12fff1e 	.word	0xe12fff1e

0001257c <malloc>:
   1257c:	e92d4ff0 	.word	0xe92d4ff0
   12580:	e59f47e4 	.word	0xe59f47e4
   12584:	e59f37e4 	.word	0xe59f37e4
   12588:	e08f4004 	.word	0xe08f4004
   1258c:	e7943003 	.word	0xe7943003
   12590:	e24dd02c 	.word	0xe24dd02c
   12594:	e58d3008 	.word	0xe58d3008
   12598:	e59f37d4 	.word	0xe59f37d4
   1259c:	e1a05000 	.word	0xe1a05000
   125a0:	e7943003 	.word	0xe7943003
   125a4:	e59d2008 	.word	0xe59d2008
   125a8:	e58d3010 	.word	0xe58d3010
   125ac:	e28d3018 	.word	0xe28d3018
   125b0:	e1a00003 	.word	0xe1a00003
   125b4:	e59d1010 	.word	0xe59d1010
   125b8:	e58d300c 	.word	0xe58d300c
   125bc:	eb000820 	.word	0xeb000820
   125c0:	e59d0008 	.word	0xe59d0008
   125c4:	eb00081a 	.word	0xeb00081a
   125c8:	e3750021 	.word	0xe3750021
   125cc:	9a000006 	.word	0x9a000006
   125d0:	e59f37a0 	.word	0xe59f37a0
   125d4:	eb0009bd 	.word	0xeb0009bd
   125d8:	e3a0200c 	.word	0xe3a0200c
   125dc:	e79f3003 	.word	0xe79f3003
   125e0:	e7802003 	.word	0xe7802003
   125e4:	e3a00000 	.word	0xe3a00000
   125e8:	ea0001dd 	.word	0xea0001dd
   125ec:	e59f3788 	.word	0xe59f3788
   125f0:	e285500b 	.word	0xe285500b
   125f4:	e7943003 	.word	0xe7943003
   125f8:	e355000f 	.word	0xe355000f
   125fc:	e5936000 	.word	0xe5936000
   12600:	83c55007 	.word	0x83c55007
   12604:	93a05010 	.word	0x93a05010
   12608:	e3160001 	.word	0xe3160001
   1260c:	e1a04003 	.word	0xe1a04003
   12610:	1a000004 	.word	0x1a000004
   12614:	e3560000 	.word	0xe3560000
   12618:	1a0000df 	.word	0x1a0000df
   1261c:	e1a00003 	.word	0xe1a00003
   12620:	eb0002e4 	.word	0xeb0002e4
   12624:	ea0000dc 	.word	0xea0000dc
   12628:	e1550006 	.word	0xe1550006
   1262c:	8a000008 	.word	0x8a000008
   12630:	e1a020a5 	.word	0xe1a020a5
   12634:	e2422008 	.word	0xe2422008
   12638:	e0833002 	.word	0xe0833002
   1263c:	e5930004 	.word	0xe5930004
   12640:	e3500000 	.word	0xe3500000
   12644:	11a04000 	.word	0x11a04000
   12648:	15b42008 	.word	0x15b42008
   1264c:	15832004 	.word	0x15832004
   12650:	1a00018a 	.word	0x1a00018a
   12654:	e35500ff 	.word	0xe35500ff
   12658:	8a00000d 	.word	0x8a00000d
   1265c:	e0843005 	.word	0xe0843005
   12660:	e5930038 	.word	0xe5930038
   12664:	e283302c 	.word	0xe283302c
   12668:	e1500003 	.word	0xe1500003
   1266c:	e1a081a5 	.word	0xe1a081a5
   12670:	0a00000e 	.word	0x0a00000e
   12674:	e0805005 	.word	0xe0805005
   12678:	e5952004 	.word	0xe5952004
   1267c:	e590100c 	.word	0xe590100c
   12680:	e3822001 	.word	0xe3822001
   12684:	e5852004 	.word	0xe5852004
   12688:	e583100c 	.word	0xe583100c
   1268c:	e5813008 	.word	0xe5813008
   12690:	ea000172 	.word	0xea000172
   12694:	e1a00005 	.word	0xe1a00005
   12698:	ebffff99 	.word	0xebffff99
   1269c:	e3160002 	.word	0xe3160002
   126a0:	e1a08000 	.word	0xe1a08000
   126a4:	0a000001 	.word	0x0a000001
   126a8:	e1a00004 	.word	0xe1a00004
   126ac:	eb0002c1 	.word	0xeb0002c1
   126b0:	e2849034 	.word	0xe2849034
   126b4:	e285a010 	.word	0xe285a010
   126b8:	e3a0b001 	.word	0xe3a0b001
   126bc:	e5946040 	.word	0xe5946040
   126c0:	e1560009 	.word	0xe1560009
   126c4:	0a000046 	.word	0x0a000046
   126c8:	e596200c 	.word	0xe596200c
   126cc:	e5963004 	.word	0xe5963004
   126d0:	e35500ff 	.word	0xe35500ff
   126d4:	91520009 	.word	0x91520009
   126d8:	e3c37003 	.word	0xe3c37003
   126dc:	1a000011 	.word	0x1a000011
   126e0:	e5943030 	.word	0xe5943030
   126e4:	e1560003 	.word	0xe1560003
   126e8:	1a00000e 	.word	0x1a00000e
   126ec:	e157000a 	.word	0xe157000a
   126f0:	9a00000c 	.word	0x9a00000c
   126f4:	e0653007 	.word	0xe0653007
   126f8:	e0862005 	.word	0xe0862005
   126fc:	e3831001 	.word	0xe3831001
   12700:	e3855001 	.word	0xe3855001
   12704:	e584203c 	.word	0xe584203c
   12708:	e5842040 	.word	0xe5842040
   1270c:	e5842030 	.word	0xe5842030
   12710:	e5829008 	.word	0xe5829008
   12714:	e582900c 	.word	0xe582900c
   12718:	e5865004 	.word	0xe5865004
   1271c:	e5821004 	.word	0xe5821004
   12720:	e7823003 	.word	0xe7823003
   12724:	ea000007 	.word	0xea000007
   12728:	e1570005 	.word	0xe1570005
   1272c:	e5842040 	.word	0xe5842040
   12730:	e5829008 	.word	0xe5829008
   12734:	1a000005 	.word	0x1a000005
   12738:	e0863007 	.word	0xe0863007
   1273c:	e5932004 	.word	0xe5932004
   12740:	e3822001 	.word	0xe3822001
   12744:	e5832004 	.word	0xe5832004
   12748:	e2864008 	.word	0xe2864008
   1274c:	ea00014b 	.word	0xea00014b
   12750:	e35700ff 	.word	0xe35700ff
   12754:	91a001a7 	.word	0x91a001a7
   12758:	90843180 	.word	0x90843180
   1275c:	9283302c 	.word	0x9283302c
   12760:	95932008 	.word	0x95932008
   12764:	9a000012 	.word	0x9a000012
   12768:	e1a00007 	.word	0xe1a00007
   1276c:	ebffff64 	.word	0xebffff64
   12770:	e0842180 	.word	0xe0842180
   12774:	e282202c 	.word	0xe282202c
   12778:	e5921008 	.word	0xe5921008
   1277c:	e1510002 	.word	0xe1510002
   12780:	01a03002 	.word	0x01a03002
   12784:	0a00000a 	.word	0x0a00000a
   12788:	e592300c 	.word	0xe592300c
   1278c:	e593c004 	.word	0xe593c004
   12790:	e157000c 	.word	0xe157000c
   12794:	23873001 	.word	0x23873001
   12798:	21a02001 	.word	0x21a02001
   1279c:	3a000004 	.word	0x3a000004
   127a0:	e5921004 	.word	0xe5921004
   127a4:	e1530001 	.word	0xe1530001
   127a8:	35922008 	.word	0x35922008
   127ac:	3afffffb 	.word	0x3afffffb
   127b0:	e592300c 	.word	0xe592300c
   127b4:	e1a012c0 	.word	0xe1a012c0
   127b8:	e28110cc 	.word	0xe28110cc
   127bc:	e0841101 	.word	0xe0841101
   127c0:	e591c004 	.word	0xe591c004
   127c4:	e200001f 	.word	0xe200001f
   127c8:	e18c001b 	.word	0xe18c001b
   127cc:	e5810004 	.word	0xe5810004
   127d0:	e586300c 	.word	0xe586300c
   127d4:	e5862008 	.word	0xe5862008
   127d8:	e582600c 	.word	0xe582600c
   127dc:	e5836008 	.word	0xe5836008
   127e0:	eaffffb5 	.word	0xeaffffb5
   127e4:	e35500ff 	.word	0xe35500ff
   127e8:	80841188 	.word	0x80841188
   127ec:	8281102c 	.word	0x8281102c
   127f0:	8591300c 	.word	0x8591300c
   127f4:	9a000026 	.word	0x9a000026
   127f8:	e1530001 	.word	0xe1530001
   127fc:	0a000024 	.word	0x0a000024
   12800:	e5932004 	.word	0xe5932004
   12804:	e3c22003 	.word	0xe3c22003
   12808:	e1520005 	.word	0xe1520005
   1280c:	3a00001e 	.word	0x3a00001e
   12810:	e593c008 	.word	0xe593c008
   12814:	e0651002 	.word	0xe0651002
   12818:	e59ce00c 	.word	0xe59ce00c
   1281c:	e593000c 	.word	0xe593000c
   12820:	e15e0003 	.word	0xe15e0003
   12824:	1a000002 	.word	0x1a000002
   12828:	e590e008 	.word	0xe590e008
   1282c:	e15e0003 	.word	0xe15e0003
   12830:	0a000000 	.word	0x0a000000
   12834:	eb000358 	.word	0xeb000358
   12838:	e351000f 	.word	0xe351000f
   1283c:	e58c000c 	.word	0xe58c000c
   12840:	e580c008 	.word	0xe580c008
   12844:	e2830008 	.word	0xe2830008
   12848:	90833002 	.word	0x90833002
   1284c:	95932004 	.word	0x95932004
   12850:	93822001 	.word	0x93822001
   12854:	95832004 	.word	0x95832004
   12858:	9a00005f 	.word	0x9a00005f
   1285c:	e0832005 	.word	0xe0832005
   12860:	e584203c 	.word	0xe584203c
   12864:	e5842040 	.word	0xe5842040
   12868:	e3855001 	.word	0xe3855001
   1286c:	e2844034 	.word	0xe2844034
   12870:	e5824008 	.word	0xe5824008
   12874:	e582400c 	.word	0xe582400c
   12878:	e5835004 	.word	0xe5835004
   1287c:	e3813001 	.word	0xe3813001
   12880:	e5823004 	.word	0xe5823004
   12884:	e7821001 	.word	0xe7821001
   12888:	ea000053 	.word	0xea000053
   1288c:	e593300c 	.word	0xe593300c
   12890:	eaffffd8 	.word	0xeaffffd8
   12894:	e2888001 	.word	0xe2888001
   12898:	e1a0c2a8 	.word	0xe1a0c2a8
   1289c:	e084210c 	.word	0xe084210c
   128a0:	e0843188 	.word	0xe0843188
   128a4:	e5921334 	.word	0xe5921334
   128a8:	e208801f 	.word	0xe208801f
   128ac:	e3a02001 	.word	0xe3a02001
   128b0:	e1a00812 	.word	0xe1a00812
   128b4:	e283302c 	.word	0xe283302c
   128b8:	e1500001 	.word	0xe1500001
   128bc:	93a02000 	.word	0x93a02000
   128c0:	83a02001 	.word	0x83a02001
   128c4:	e3500000 	.word	0xe3500000
   128c8:	03822001 	.word	0x03822001
   128cc:	e3520000 	.word	0xe3520000
   128d0:	0a000009 	.word	0x0a000009
   128d4:	e28cc001 	.word	0xe28cc001
   128d8:	e35c0002 	.word	0xe35c0002
   128dc:	8a00002e 	.word	0x8a00002e
   128e0:	e084310c 	.word	0xe084310c
   128e4:	e5931334 	.word	0xe5931334
   128e8:	e3510000 	.word	0xe3510000
   128ec:	0afffff8 	.word	0x0afffff8
   128f0:	e084340c 	.word	0xe084340c
   128f4:	e283302c 	.word	0xe283302c
   128f8:	e3a00001 	.word	0xe3a00001
   128fc:	e1100001 	.word	0xe1100001
   12900:	02833008 	.word	0x02833008
   12904:	01a00080 	.word	0x01a00080
   12908:	0afffffb 	.word	0x0afffffb
   1290c:	e593200c 	.word	0xe593200c
   12910:	e1520003 	.word	0xe1520003
   12914:	1a000005 	.word	0x1a000005
   12918:	e1c11000 	.word	0xe1c11000
   1291c:	e084210c 	.word	0xe084210c
   12920:	e5821334 	.word	0xe5821334
   12924:	e2833008 	.word	0xe2833008
   12928:	e1a00080 	.word	0xe1a00080
   1292c:	eaffffe1 	.word	0xeaffffe1
   12930:	e5921004 	.word	0xe5921004
   12934:	e592000c 	.word	0xe592000c
   12938:	e3c11003 	.word	0xe3c11003
   1293c:	e065c001 	.word	0xe065c001
   12940:	e35c000f 	.word	0xe35c000f
   12944:	e583000c 	.word	0xe583000c
   12948:	e5803008 	.word	0xe5803008
   1294c:	e2820008 	.word	0xe2820008
   12950:	90822001 	.word	0x90822001
   12954:	95923004 	.word	0x95923004
   12958:	93833001 	.word	0x93833001
   1295c:	95823004 	.word	0x95823004
   12960:	9a00001d 	.word	0x9a00001d
   12964:	e0823005 	.word	0xe0823005
   12968:	e2841034 	.word	0xe2841034
   1296c:	e35500ff 	.word	0xe35500ff
   12970:	e3855001 	.word	0xe3855001
   12974:	e584303c 	.word	0xe584303c
   12978:	e5843040 	.word	0xe5843040
   1297c:	e5831008 	.word	0xe5831008
   12980:	e583100c 	.word	0xe583100c
   12984:	95843030 	.word	0x95843030
   12988:	e5825004 	.word	0xe5825004
   1298c:	e38c2001 	.word	0xe38c2001
   12990:	e5832004 	.word	0xe5832004
   12994:	e783c00c 	.word	0xe783c00c
   12998:	ea00000f 	.word	0xea00000f
   1299c:	e594002c 	.word	0xe594002c
   129a0:	e2852010 	.word	0xe2852010
   129a4:	e5903004 	.word	0xe5903004
   129a8:	e58d2008 	.word	0xe58d2008
   129ac:	e3c33003 	.word	0xe3c33003
   129b0:	e1530002 	.word	0xe1530002
   129b4:	2a0000a2 	.word	0x2a0000a2
   129b8:	e5940000 	.word	0xe5940000
   129bc:	e594135c 	.word	0xe594135c
   129c0:	e2100002 	.word	0xe2100002
   129c4:	e241a001 	.word	0xe241a001
   129c8:	0a000005 	.word	0x0a000005
   129cc:	e1a00004 	.word	0xe1a00004
   129d0:	eb0001f8 	.word	0xeb0001f8
   129d4:	e2450007 	.word	0xe2450007
   129d8:	ebfffee7 	.word	0xebfffee7
   129dc:	e1a04000 	.word	0xe1a04000
   129e0:	ea0000a6 	.word	0xea0000a6
   129e4:	e594334c 	.word	0xe594334c
   129e8:	e1e0b00a 	.word	0xe1e0b00a
   129ec:	e1550003 	.word	0xe1550003
   129f0:	3a00002a 	.word	0x3a00002a
   129f4:	e5942350 	.word	0xe5942350
   129f8:	e5943354 	.word	0xe5943354
   129fc:	e1520003 	.word	0xe1520003
   12a00:	aa000026 	.word	0xaa000026
   12a04:	e281100a 	.word	0xe281100a
   12a08:	e0811005 	.word	0xe0811005
   12a0c:	e001600b 	.word	0xe001600b
   12a10:	e1560005 	.word	0xe1560005
   12a14:	9a000021 	.word	0x9a000021
   12a18:	e58d0004 	.word	0xe58d0004
   12a1c:	e58d0000 	.word	0xe58d0000
   12a20:	e3a03022 	.word	0xe3a03022
   12a24:	e3a02003 	.word	0xe3a02003
   12a28:	e1a01006 	.word	0xe1a01006
   12a2c:	eb000854 	.word	0xeb000854
   12a30:	e3700001 	.word	0xe3700001
   12a34:	0a000019 	.word	0x0a000019
   12a38:	e2103007 	.word	0xe2103007
   12a3c:	12633008 	.word	0x12633008
   12a40:	17a03003 	.word	0x17a03003
   12a44:	10633006 	.word	0x10633006
   12a48:	05803000 	.word	0x05803000
   12a4c:	13833002 	.word	0x13833002
   12a50:	03863002 	.word	0x03863002
   12a54:	e5803004 	.word	0xe5803004
   12a58:	e5943350 	.word	0xe5943350
   12a5c:	e5942358 	.word	0xe5942358
   12a60:	e2833001 	.word	0xe2833001
   12a64:	e1530002 	.word	0xe1530002
   12a68:	e5941364 	.word	0xe5941364
   12a6c:	c5843358 	.word	0xc5843358
   12a70:	e5843350 	.word	0xe5843350
   12a74:	e5943370 	.word	0xe5943370
   12a78:	e0861001 	.word	0xe0861001
   12a7c:	e1510003 	.word	0xe1510003
   12a80:	e5943368 	.word	0xe5943368
   12a84:	85841370 	.word	0x85841370
   12a88:	e5841364 	.word	0xe5841364
   12a8c:	e0811003 	.word	0xe0811003
   12a90:	e5943374 	.word	0xe5943374
   12a94:	e1510003 	.word	0xe1510003
   12a98:	85841374 	.word	0x85841374
   12a9c:	ea00006f 	.word	0xea00006f
   12aa0:	e594902c 	.word	0xe594902c
   12aa4:	e5946348 	.word	0xe5946348
   12aa8:	e5997004 	.word	0xe5997004
   12aac:	e5943360 	.word	0xe5943360
   12ab0:	e2866010 	.word	0xe2866010
   12ab4:	e3c77003 	.word	0xe3c77003
   12ab8:	e0866005 	.word	0xe0866005
   12abc:	e3130001 	.word	0xe3130001
   12ac0:	10676006 	.word	0x10676006
   12ac4:	e086600a 	.word	0xe086600a
   12ac8:	e006600b 	.word	0xe006600b
   12acc:	e3560000 	.word	0xe3560000
   12ad0:	e0898007 	.word	0xe0898007
   12ad4:	ca000009 	.word	0xca000009
   12ad8:	e5943360 	.word	0xe5943360
   12adc:	e3130001 	.word	0xe3130001
   12ae0:	1087300a 	.word	0x1087300a
   12ae4:	10836006 	.word	0x10836006
   12ae8:	1006600b 	.word	0x1006600b
   12aec:	e3560601 	.word	0xe3560601
   12af0:	33a06601 	.word	0x33a06601
   12af4:	e1560005 	.word	0xe1560005
   12af8:	9a00005a 	.word	0x9a00005a
   12afc:	ea000006 	.word	0xea000006
   12b00:	e1a00006 	.word	0xe1a00006
   12b04:	eb000951 	.word	0xeb000951
   12b08:	e3700001 	.word	0xe3700001
   12b0c:	e1a03000 	.word	0xe1a03000
   12b10:	13e00000 	.word	0x13e00000
   12b14:	1a00000e 	.word	0x1a00000e
   12b18:	eaffffee 	.word	0xeaffffee
   12b1c:	e3a00000 	.word	0xe3a00000
   12b20:	e3a03022 	.word	0xe3a03022
   12b24:	e58d0004 	.word	0xe58d0004
   12b28:	e58d0000 	.word	0xe58d0000
   12b2c:	e3a02003 	.word	0xe3a02003
   12b30:	e1a01006 	.word	0xe1a01006
   12b34:	eb000812 	.word	0xeb000812
   12b38:	e3700001 	.word	0xe3700001
   12b3c:	e1a03000 	.word	0xe1a03000
   12b40:	0a000048 	.word	0x0a000048
   12b44:	e5942360 	.word	0xe5942360
   12b48:	e0800006 	.word	0xe0800006
   12b4c:	e3c22001 	.word	0xe3c22001
   12b50:	e5842360 	.word	0xe5842360
   12b54:	e5941368 	.word	0xe5941368
   12b58:	e1530008 	.word	0xe1530008
   12b5c:	03700001 	.word	0x03700001
   12b60:	e0861001 	.word	0xe0861001
   12b64:	00866007 	.word	0x00866007
   12b68:	03866001 	.word	0x03866001
   12b6c:	e5841368 	.word	0xe5841368
   12b70:	05896004 	.word	0x05896004
   12b74:	0a000023 	.word	0x0a000023
   12b78:	e5942360 	.word	0xe5942360
   12b7c:	e3120001 	.word	0xe3120001
   12b80:	0a000003 	.word	0x0a000003
   12b84:	e3570000 	.word	0xe3570000
   12b88:	11530008 	.word	0x11530008
   12b8c:	33c22001 	.word	0x33c22001
   12b90:	35842360 	.word	0x35842360
   12b94:	e5942360 	.word	0xe5942360
   12b98:	e2122001 	.word	0xe2122001
   12b9c:	0a000043 	.word	0x0a000043
   12ba0:	e3570000 	.word	0xe3570000
   12ba4:	10688003 	.word	0x10688003
   12ba8:	10881001 	.word	0x10881001
   12bac:	15841368 	.word	0x15841368
   12bb0:	e2132007 	.word	0xe2132007
   12bb4:	12622008 	.word	0x12622008
   12bb8:	10838002 	.word	0x10838002
   12bbc:	e0822007 	.word	0xe0822007
   12bc0:	e0821006 	.word	0xe0821006
   12bc4:	e0831001 	.word	0xe0831001
   12bc8:	e081a00a 	.word	0xe081a00a
   12bcc:	e0612002 	.word	0xe0612002
   12bd0:	e00bb00a 	.word	0xe00bb00a
   12bd4:	e082b00b 	.word	0xe082b00b
   12bd8:	e1a0000b 	.word	0xe1a0000b
   12bdc:	01a08003 	.word	0x01a08003
   12be0:	e58d3010 	.word	0xe58d3010
   12be4:	eb000919 	.word	0xeb000919
   12be8:	e59d3010 	.word	0xe59d3010
   12bec:	e3700001 	.word	0xe3700001
   12bf0:	1a000027 	.word	0x1a000027
   12bf4:	e3a00000 	.word	0xe3a00000
   12bf8:	eb000914 	.word	0xeb000914
   12bfc:	e3a0b000 	.word	0xe3a0b000
   12c00:	e3700001 	.word	0xe3700001
   12c04:	1a00003b 	.word	0x1a00003b
   12c08:	e5943368 	.word	0xe5943368
   12c0c:	e594236c 	.word	0xe594236c
   12c10:	e594002c 	.word	0xe594002c
   12c14:	e1530002 	.word	0xe1530002
   12c18:	e5942364 	.word	0xe5942364
   12c1c:	8584336c 	.word	0x8584336c
   12c20:	e0833002 	.word	0xe0833002
   12c24:	e5942374 	.word	0xe5942374
   12c28:	e1530002 	.word	0xe1530002
   12c2c:	85843374 	.word	0x85843374
   12c30:	e5903004 	.word	0xe5903004
   12c34:	e59d2008 	.word	0xe59d2008
   12c38:	e3c33003 	.word	0xe3c33003
   12c3c:	e1530002 	.word	0xe1530002
   12c40:	3a000008 	.word	0x3a000008
   12c44:	e0802005 	.word	0xe0802005
   12c48:	e3851001 	.word	0xe3851001
   12c4c:	e0655003 	.word	0xe0655003
   12c50:	e3855001 	.word	0xe3855001
   12c54:	e584202c 	.word	0xe584202c
   12c58:	e5801004 	.word	0xe5801004
   12c5c:	e5825004 	.word	0xe5825004
   12c60:	e2804008 	.word	0xe2804008
   12c64:	ea000005 	.word	0xea000005
   12c68:	e59f3110 	.word	0xe59f3110
   12c6c:	eb000817 	.word	0xeb000817
   12c70:	e3a0200c 	.word	0xe3a0200c
   12c74:	e79f3003 	.word	0xe79f3003
   12c78:	e3a04000 	.word	0xe3a04000
   12c7c:	e7802003 	.word	0xe7802003
   12c80:	e59d000c 	.word	0xe59d000c
   12c84:	e3a01001 	.word	0xe3a01001
   12c88:	eb00066f 	.word	0xeb00066f
   12c8c:	e1a00004 	.word	0xe1a00004
   12c90:	ea000033 	.word	0xea000033
   12c94:	e1500003 	.word	0xe1500003
   12c98:	2affffd8 	.word	0x2affffd8
   12c9c:	e0830006 	.word	0xe0830006
   12ca0:	e5943360 	.word	0xe5943360
   12ca4:	e3c33001 	.word	0xe3c33001
   12ca8:	e5843360 	.word	0xe5843360
   12cac:	eaffffd2 	.word	0xeaffffd2
   12cb0:	e3700001 	.word	0xe3700001
   12cb4:	11a08003 	.word	0x11a08003
   12cb8:	11a0b002 	.word	0x11a0b002
   12cbc:	1a00000d 	.word	0x1a00000d
   12cc0:	e1a00002 	.word	0xe1a00002
   12cc4:	e58d3014 	.word	0xe58d3014
   12cc8:	e58d2010 	.word	0xe58d2010
   12ccc:	eb0008df 	.word	0xeb0008df
   12cd0:	e59d3014 	.word	0xe59d3014
   12cd4:	e59d2010 	.word	0xe59d2010
   12cd8:	e1a08003 	.word	0xe1a08003
   12cdc:	e1a0b002 	.word	0xe1a0b002
   12ce0:	e0631000 	.word	0xe0631000
   12ce4:	e0666001 	.word	0xe0666001
   12ce8:	e5941368 	.word	0xe5941368
   12cec:	e0866001 	.word	0xe0866001
   12cf0:	e5846368 	.word	0xe5846368
   12cf4:	eaffffc1 	.word	0xeaffffc1
   12cf8:	e594a368 	.word	0xe594a368
   12cfc:	e0680000 	.word	0xe0680000
   12d00:	e080000b 	.word	0xe080000b
   12d04:	e3800001 	.word	0xe3800001
   12d08:	e08bb00a 	.word	0xe08bb00a
   12d0c:	e3570000 	.word	0xe3570000
   12d10:	e584802c 	.word	0xe584802c
   12d14:	e5880004 	.word	0xe5880004
   12d18:	e584b368 	.word	0xe584b368
   12d1c:	0affffb9 	.word	0x0affffb9
   12d20:	e247700c 	.word	0xe247700c
   12d24:	e3c77007 	.word	0xe3c77007
   12d28:	e3873001 	.word	0xe3873001
   12d2c:	e5893004 	.word	0xe5893004
   12d30:	e3a02005 	.word	0xe3a02005
   12d34:	e0893007 	.word	0xe0893007
   12d38:	e357000f 	.word	0xe357000f
   12d3c:	e5832004 	.word	0xe5832004
   12d40:	e5832008 	.word	0xe5832008
   12d44:	9affffaf 	.word	0x9affffaf
   12d48:	e5946344 	.word	0xe5946344
   12d4c:	e3e03000 	.word	0xe3e03000
   12d50:	e2890008 	.word	0xe2890008
   12d54:	e5843344 	.word	0xe5843344
   12d58:	ebfff6dd 	.word	0xebfff6dd
   12d5c:	e5846344 	.word	0xe5846344
   12d60:	eaffffa8 	.word	0xeaffffa8
   12d64:	e28dd02c 	.word	0xe28dd02c
   12d68:	e8bd8ff0 	.word	0xe8bd8ff0
   12d6c:	0005c010 	.word	0x0005c010
   12d70:	00000074 	.word	0x00000074
   12d74:	00000050 	.word	0x00000050
   12d78:	0005c024 	.word	0x0005c024
   12d7c:	0000004c 	.word	0x0000004c
   12d80:	0005b98c 	.word	0x0005b98c

00012d84 <realloc>:
   12d84:	e92d4ff0 	.word	0xe92d4ff0
   12d88:	e59f935c 	.word	0xe59f935c
   12d8c:	e2504000 	.word	0xe2504000
   12d90:	e08f9009 	.word	0xe08f9009
   12d94:	e24dd01c 	.word	0xe24dd01c
   12d98:	e1a05001 	.word	0xe1a05001
   12d9c:	1a000002 	.word	0x1a000002
   12da0:	e1a00001 	.word	0xe1a00001
   12da4:	ebfff609 	.word	0xebfff609
   12da8:	ea0000cd 	.word	0xea0000cd
   12dac:	e3510000 	.word	0xe3510000
   12db0:	1a000002 	.word	0x1a000002
   12db4:	ebfff6c6 	.word	0xebfff6c6
   12db8:	e1a00005 	.word	0xe1a00005
   12dbc:	ea0000c8 	.word	0xea0000c8
   12dc0:	e59f3328 	.word	0xe59f3328
   12dc4:	e28db008 	.word	0xe28db008
   12dc8:	e7993003 	.word	0xe7993003
   12dcc:	e1a0000b 	.word	0xe1a0000b
   12dd0:	e58d3000 	.word	0xe58d3000
   12dd4:	e59f3318 	.word	0xe59f3318
   12dd8:	e59d2000 	.word	0xe59d2000
   12ddc:	e7993003 	.word	0xe7993003
   12de0:	e1a01003 	.word	0xe1a01003
   12de4:	e58d3004 	.word	0xe58d3004
   12de8:	eb000615 	.word	0xeb000615
   12dec:	e59d0000 	.word	0xe59d0000
   12df0:	eb00060f 	.word	0xeb00060f
   12df4:	e3750021 	.word	0xe3750021
   12df8:	9a000006 	.word	0x9a000006
   12dfc:	e59f32f4 	.word	0xe59f32f4
   12e00:	eb0007b2 	.word	0xeb0007b2
   12e04:	e3a0200c 	.word	0xe3a0200c
   12e08:	e79f3003 	.word	0xe79f3003
   12e0c:	e7802003 	.word	0xe7802003
   12e10:	e3a00000 	.word	0xe3a00000
   12e14:	ea0000b2 	.word	0xea0000b2
   12e18:	e5142004 	.word	0xe5142004
   12e1c:	e285500b 	.word	0xe285500b
   12e20:	e355000f 	.word	0xe355000f
   12e24:	83c55007 	.word	0x83c55007
   12e28:	93a05010 	.word	0x93a05010
   12e2c:	e3120002 	.word	0xe3120002
   12e30:	e2447008 	.word	0xe2447008
   12e34:	e3c26003 	.word	0xe3c26003
   12e38:	1a00006f 	.word	0x1a00006f
   12e3c:	e1560005 	.word	0xe1560005
   12e40:	2a000054 	.word	0x2a000054
   12e44:	e59f32b0 	.word	0xe59f32b0
   12e48:	e0878006 	.word	0xe0878006
   12e4c:	e7991003 	.word	0xe7991003
   12e50:	e591302c 	.word	0xe591302c
   12e54:	e1580003 	.word	0xe1580003
   12e58:	e5983004 	.word	0xe5983004
   12e5c:	1a00000d 	.word	0x1a00000d
   12e60:	e3c33003 	.word	0xe3c33003
   12e64:	e0833006 	.word	0xe0833006
   12e68:	e2850010 	.word	0xe2850010
   12e6c:	e1530000 	.word	0xe1530000
   12e70:	3a00001d 	.word	0x3a00001d
   12e74:	e2022001 	.word	0xe2022001
   12e78:	e0653003 	.word	0xe0653003
   12e7c:	e0877005 	.word	0xe0877005
   12e80:	e1852002 	.word	0xe1852002
   12e84:	e3833001 	.word	0xe3833001
   12e88:	e5042004 	.word	0xe5042004
   12e8c:	e581702c 	.word	0xe581702c
   12e90:	e5873004 	.word	0xe5873004
   12e94:	ea00008e 	.word	0xea00008e
   12e98:	e3c32001 	.word	0xe3c32001
   12e9c:	e0882002 	.word	0xe0882002
   12ea0:	e5922004 	.word	0xe5922004
   12ea4:	e3120001 	.word	0xe3120001
   12ea8:	1a00000f 	.word	0x1a00000f
   12eac:	e3c33003 	.word	0xe3c33003
   12eb0:	e0833006 	.word	0xe0833006
   12eb4:	e1530005 	.word	0xe1530005
   12eb8:	3a00000b 	.word	0x3a00000b
   12ebc:	e5981008 	.word	0xe5981008
   12ec0:	e598200c 	.word	0xe598200c
   12ec4:	e591000c 	.word	0xe591000c
   12ec8:	e1500008 	.word	0xe1500008
   12ecc:	1a000005 	.word	0x1a000005
   12ed0:	e592c008 	.word	0xe592c008
   12ed4:	e15c0000 	.word	0xe15c0000
   12ed8:	0581200c 	.word	0x0581200c
   12edc:	01a06003 	.word	0x01a06003
   12ee0:	05821008 	.word	0x05821008
   12ee4:	0a00002b 	.word	0x0a00002b
   12ee8:	eb0001ab 	.word	0xeb0001ab
   12eec:	e2450007 	.word	0xe2450007
   12ef0:	ebfff5b6 	.word	0xebfff5b6
   12ef4:	e2509000 	.word	0xe2509000
   12ef8:	0a000072 	.word	0x0a000072
   12efc:	e5193004 	.word	0xe5193004
   12f00:	e2492008 	.word	0xe2492008
   12f04:	e1580002 	.word	0xe1580002
   12f08:	03c33003 	.word	0x03c33003
   12f0c:	00866003 	.word	0x00866003
   12f10:	0a000020 	.word	0x0a000020
   12f14:	e2462004 	.word	0xe2462004
   12f18:	e1a03122 	.word	0xe1a03122
   12f1c:	e3530009 	.word	0xe3530009
   12f20:	9a000002 	.word	0x9a000002
   12f24:	e1a01004 	.word	0xe1a01004
   12f28:	ebfffc68 	.word	0xebfffc68
   12f2c:	ea000016 	.word	0xea000016
   12f30:	e5942000 	.word	0xe5942000
   12f34:	e3530004 	.word	0xe3530004
   12f38:	e5892000 	.word	0xe5892000
   12f3c:	e5942004 	.word	0xe5942004
   12f40:	e5892004 	.word	0xe5892004
   12f44:	e5942008 	.word	0xe5942008
   12f48:	e5892008 	.word	0xe5892008
   12f4c:	9a00000e 	.word	0x9a00000e
   12f50:	e594200c 	.word	0xe594200c
   12f54:	e3530006 	.word	0xe3530006
   12f58:	e589200c 	.word	0xe589200c
   12f5c:	e5942010 	.word	0xe5942010
   12f60:	e5892010 	.word	0xe5892010
   12f64:	9a000008 	.word	0x9a000008
   12f68:	e3530009 	.word	0xe3530009
   12f6c:	0594301c 	.word	0x0594301c
   12f70:	e5942014 	.word	0xe5942014
   12f74:	0589301c 	.word	0x0589301c
   12f78:	e5892014 	.word	0xe5892014
   12f7c:	05943020 	.word	0x05943020
   12f80:	e5942018 	.word	0xe5942018
   12f84:	05893020 	.word	0x05893020
   12f88:	e5892018 	.word	0xe5892018
   12f8c:	e1a00004 	.word	0xe1a00004
   12f90:	ebfff64f 	.word	0xebfff64f
   12f94:	ea00004b 	.word	0xea00004b
   12f98:	e0651006 	.word	0xe0651006
   12f9c:	e351000f 	.word	0xe351000f
   12fa0:	e5143004 	.word	0xe5143004
   12fa4:	8a000007 	.word	0x8a000007
   12fa8:	e2033001 	.word	0xe2033001
   12fac:	e1863003 	.word	0xe1863003
   12fb0:	e0876006 	.word	0xe0876006
   12fb4:	e5043004 	.word	0xe5043004
   12fb8:	e5963004 	.word	0xe5963004
   12fbc:	e3833001 	.word	0xe3833001
   12fc0:	e5863004 	.word	0xe5863004
   12fc4:	ea000042 	.word	0xea000042
   12fc8:	e0870005 	.word	0xe0870005
   12fcc:	e2033001 	.word	0xe2033001
   12fd0:	e1855003 	.word	0xe1855003
   12fd4:	e3813001 	.word	0xe3813001
   12fd8:	e0801001 	.word	0xe0801001
   12fdc:	e5045004 	.word	0xe5045004
   12fe0:	e5803004 	.word	0xe5803004
   12fe4:	e5913004 	.word	0xe5913004
   12fe8:	e2800008 	.word	0xe2800008
   12fec:	e3833001 	.word	0xe3833001
   12ff0:	e5813004 	.word	0xe5813004
   12ff4:	ebfff636 	.word	0xebfff636
   12ff8:	ea000035 	.word	0xea000035
   12ffc:	e59f30f8 	.word	0xe59f30f8
   13000:	e514a008 	.word	0xe514a008
   13004:	e7998003 	.word	0xe7998003
   13008:	e28a3004 	.word	0xe28a3004
   1300c:	e598935c 	.word	0xe598935c
   13010:	e2499001 	.word	0xe2499001
   13014:	e0833009 	.word	0xe0833009
   13018:	e0833005 	.word	0xe0833005
   1301c:	e1c39009 	.word	0xe1c39009
   13020:	e06a3009 	.word	0xe06a3009
   13024:	e1560003 	.word	0xe1560003
   13028:	e58d3000 	.word	0xe58d3000
   1302c:	0a000028 	.word	0x0a000028
   13030:	e3a03001 	.word	0xe3a03001
   13034:	e1a02009 	.word	0xe1a02009
   13038:	e086100a 	.word	0xe086100a
   1303c:	e06a0007 	.word	0xe06a0007
   13040:	eb0007b7 	.word	0xeb0007b7
   13044:	e3700001 	.word	0xe3700001
   13048:	0a000011 	.word	0x0a000011
   1304c:	e59d3000 	.word	0xe59d3000
   13050:	e5982364 	.word	0xe5982364
   13054:	e080400a 	.word	0xe080400a
   13058:	e3833002 	.word	0xe3833002
   1305c:	e5843004 	.word	0xe5843004
   13060:	e5983370 	.word	0xe5983370
   13064:	e0666002 	.word	0xe0666002
   13068:	e0869009 	.word	0xe0869009
   1306c:	e5986368 	.word	0xe5986368
   13070:	e1590003 	.word	0xe1590003
   13074:	e5983374 	.word	0xe5983374
   13078:	85889370 	.word	0x85889370
   1307c:	e5889364 	.word	0xe5889364
   13080:	e0899006 	.word	0xe0899006
   13084:	e1590003 	.word	0xe1590003
   13088:	85889374 	.word	0x85889374
   1308c:	e2844008 	.word	0xe2844008
   13090:	ea00000f 	.word	0xea00000f
   13094:	e2853004 	.word	0xe2853004
   13098:	e1560003 	.word	0xe1560003
   1309c:	2a00000c 	.word	0x2a00000c
   130a0:	e2450007 	.word	0xe2450007
   130a4:	ebfff549 	.word	0xebfff549
   130a8:	e2505000 	.word	0xe2505000
   130ac:	0a000007 	.word	0x0a000007
   130b0:	e2462008 	.word	0xe2462008
   130b4:	e1a01004 	.word	0xe1a01004
   130b8:	ebfffc04 	.word	0xebfffc04
   130bc:	e1a00004 	.word	0xe1a00004
   130c0:	ebfff603 	.word	0xebfff603
   130c4:	ea000001 	.word	0xea000001
   130c8:	e1a04009 	.word	0xe1a04009
   130cc:	ea000000 	.word	0xea000000
   130d0:	e1a04005 	.word	0xe1a04005
   130d4:	e1a0000b 	.word	0xe1a0000b
   130d8:	e3a01001 	.word	0xe3a01001
   130dc:	eb00055a 	.word	0xeb00055a
   130e0:	e1a00004 	.word	0xe1a00004
   130e4:	e28dd01c 	.word	0xe28dd01c
   130e8:	e8bd8ff0 	.word	0xe8bd8ff0
   130ec:	0005b808 	.word	0x0005b808
   130f0:	00000074 	.word	0x00000074
   130f4:	00000050 	.word	0x00000050
   130f8:	0005b7f8 	.word	0x0005b7f8
   130fc:	0000004c 	.word	0x0000004c
   13100:	e59f30a8 	.word	0xe59f30a8
   13104:	e59f20a8 	.word	0xe59f20a8
   13108:	e08f3003 	.word	0xe08f3003
   1310c:	e92d41f0 	.word	0xe92d41f0
   13110:	e7936002 	.word	0xe7936002
   13114:	e596302c 	.word	0xe596302c
   13118:	e596535c 	.word	0xe596535c
   1311c:	e5934004 	.word	0xe5934004
   13120:	e2453011 	.word	0xe2453011
   13124:	e3c44003 	.word	0xe3c44003
   13128:	e0833004 	.word	0xe0833004
   1312c:	e1a01005 	.word	0xe1a01005
   13130:	e0600003 	.word	0xe0600003
   13134:	eb0023f3 	.word	0xeb0023f3
   13138:	e2400001 	.word	0xe2400001
   1313c:	e0070095 	.word	0xe0070095
   13140:	e3570000 	.word	0xe3570000
   13144:	ca000001 	.word	0xca000001
   13148:	e3a00000 	.word	0xe3a00000
   1314c:	e8bd81f0 	.word	0xe8bd81f0
   13150:	e3a00000 	.word	0xe3a00000
   13154:	eb0007bd 	.word	0xeb0007bd
   13158:	e596302c 	.word	0xe596302c
   1315c:	e0833004 	.word	0xe0833004
   13160:	e1500003 	.word	0xe1500003
   13164:	e1a05000 	.word	0xe1a05000
   13168:	1afffff6 	.word	0x1afffff6
   1316c:	e2670000 	.word	0xe2670000
   13170:	eb0007b6 	.word	0xeb0007b6
   13174:	e3a00000 	.word	0xe3a00000
   13178:	eb0007b4 	.word	0xeb0007b4
   1317c:	e3700001 	.word	0xe3700001
   13180:	0afffff0 	.word	0x0afffff0
   13184:	e0555000 	.word	0xe0555000
   13188:	0affffee 	.word	0x0affffee
   1318c:	e5963368 	.word	0xe5963368
   13190:	e0654004 	.word	0xe0654004
   13194:	e0653003 	.word	0xe0653003
   13198:	e5863368 	.word	0xe5863368
   1319c:	e596302c 	.word	0xe596302c
   131a0:	e3844001 	.word	0xe3844001
   131a4:	e5834004 	.word	0xe5834004
   131a8:	e3a00001 	.word	0xe3a00001
   131ac:	e8bd81f0 	.word	0xe8bd81f0
   131b0:	0005b490 	.word	0x0005b490
   131b4:	0000004c 	.word	0x0000004c

000131b8 <__malloc_consolidate>:
   131b8:	e5903000 	.word	0xe5903000
   131bc:	e92d47f0 	.word	0xe92d47f0
   131c0:	e3530000 	.word	0xe3530000
   131c4:	e1a04000 	.word	0xe1a04000
   131c8:	0a000049 	.word	0x0a000049
   131cc:	e3c33002 	.word	0xe3c33002
   131d0:	e1a011a3 	.word	0xe1a011a3
   131d4:	e0801101 	.word	0xe0801101
   131d8:	e1a05000 	.word	0xe1a05000
   131dc:	e2411004 	.word	0xe2411004
   131e0:	e280e004 	.word	0xe280e004
   131e4:	e3a08000 	.word	0xe3a08000
   131e8:	e4853034 	.word	0xe4853034
   131ec:	e59e3000 	.word	0xe59e3000
   131f0:	e3530000 	.word	0xe3530000
   131f4:	158e8000 	.word	0x158e8000
   131f8:	1a000023 	.word	0x1a000023
   131fc:	e15e0001 	.word	0xe15e0001
   13200:	e28e3004 	.word	0xe28e3004
   13204:	11a0e003 	.word	0x11a0e003
   13208:	1afffff7 	.word	0x1afffff7
   1320c:	e8bd87f0 	.word	0xe8bd87f0
   13210:	e5936000 	.word	0xe5936000
   13214:	e0663003 	.word	0xe0663003
   13218:	e5939008 	.word	0xe5939008
   1321c:	e0822006 	.word	0xe0822006
   13220:	e599a00c 	.word	0xe599a00c
   13224:	e593600c 	.word	0xe593600c
   13228:	e15a0003 	.word	0xe15a0003
   1322c:	1a000024 	.word	0x1a000024
   13230:	e596a008 	.word	0xe596a008
   13234:	e15a0003 	.word	0xe15a0003
   13238:	1a000021 	.word	0x1a000021
   1323c:	e589600c 	.word	0xe589600c
   13240:	e5869008 	.word	0xe5869008
   13244:	e594602c 	.word	0xe594602c
   13248:	e1500006 	.word	0xe1500006
   1324c:	0a000023 	.word	0x0a000023
   13250:	e080600c 	.word	0xe080600c
   13254:	e5966004 	.word	0xe5966004
   13258:	e580c004 	.word	0xe580c004
   1325c:	e3160001 	.word	0xe3160001
   13260:	0a000011 	.word	0x0a000011
   13264:	e594003c 	.word	0xe594003c
   13268:	e382c001 	.word	0xe382c001
   1326c:	e584303c 	.word	0xe584303c
   13270:	e580300c 	.word	0xe580300c
   13274:	e583c004 	.word	0xe583c004
   13278:	e583500c 	.word	0xe583500c
   1327c:	e5830008 	.word	0xe5830008
   13280:	e7832002 	.word	0xe7832002
   13284:	e2573000 	.word	0xe2573000
   13288:	0affffdb 	.word	0x0affffdb
   1328c:	e99300c0 	.word	0xe99300c0
   13290:	e3c62001 	.word	0xe3c62001
   13294:	e0830002 	.word	0xe0830002
   13298:	e590c004 	.word	0xe590c004
   1329c:	e3160001 	.word	0xe3160001
   132a0:	e3ccc003 	.word	0xe3ccc003
   132a4:	1affffe6 	.word	0x1affffe6
   132a8:	eaffffd8 	.word	0xeaffffd8
   132ac:	e5906008 	.word	0xe5906008
   132b0:	e082200c 	.word	0xe082200c
   132b4:	e596900c 	.word	0xe596900c
   132b8:	e590c00c 	.word	0xe590c00c
   132bc:	e1590000 	.word	0xe1590000
   132c0:	0a000000 	.word	0x0a000000
   132c4:	eb0000b4 	.word	0xeb0000b4
   132c8:	e59c9008 	.word	0xe59c9008
   132cc:	e1590000 	.word	0xe1590000
   132d0:	1afffffb 	.word	0x1afffffb
   132d4:	e586c00c 	.word	0xe586c00c
   132d8:	e58c6008 	.word	0xe58c6008
   132dc:	eaffffe0 	.word	0xeaffffe0
   132e0:	e082200c 	.word	0xe082200c
   132e4:	e3822001 	.word	0xe3822001
   132e8:	e5832004 	.word	0xe5832004
   132ec:	e584302c 	.word	0xe584302c
   132f0:	eaffffe3 	.word	0xeaffffe3
   132f4:	e3a02001 	.word	0xe3a02001
   132f8:	e0843182 	.word	0xe0843182
   132fc:	e2822001 	.word	0xe2822001
   13300:	e283302c 	.word	0xe283302c
   13304:	e3520060 	.word	0xe3520060
   13308:	e583300c 	.word	0xe583300c
   1330c:	e5833008 	.word	0xe5833008
   13310:	1afffff8 	.word	0x1afffff8
   13314:	e3a03000 	.word	0xe3a03000
   13318:	e5843348 	.word	0xe5843348
   1331c:	e3a03801 	.word	0xe3a03801
   13320:	e5843354 	.word	0xe5843354
   13324:	e3a03701 	.word	0xe3a03701
   13328:	e584334c 	.word	0xe584334c
   1332c:	e5843344 	.word	0xe5843344
   13330:	e5943360 	.word	0xe5943360
   13334:	e3a02048 	.word	0xe3a02048
   13338:	e3833001 	.word	0xe3833001
   1333c:	e5843360 	.word	0xe5843360
   13340:	e1a03004 	.word	0xe1a03004
   13344:	e4832034 	.word	0xe4832034
   13348:	e3a0001e 	.word	0xe3a0001e
   1334c:	e584302c 	.word	0xe584302c
   13350:	eb000123 	.word	0xeb000123
   13354:	e584035c 	.word	0xe584035c
   13358:	e8bd87f0 	.word	0xe8bd87f0

0001335c <malloc_trim>:
   1335c:	e59f302c 	.word	0xe59f302c
   13360:	e59f202c 	.word	0xe59f202c
   13364:	e08f3003 	.word	0xe08f3003
   13368:	e92d4013 	.word	0xe92d4013
   1336c:	e7933002 	.word	0xe7933002
   13370:	e1a04000 	.word	0xe1a04000
   13374:	e1a00003 	.word	0xe1a00003
   13378:	e58d3004 	.word	0xe58d3004
   1337c:	ebffff8d 	.word	0xebffff8d
   13380:	e1a00004 	.word	0xe1a00004
   13384:	e28dd008 	.word	0xe28dd008
   13388:	e8bd4010 	.word	0xe8bd4010
   1338c:	eaffff5b 	.word	0xeaffff5b
   13390:	0005b234 	.word	0x0005b234
   13394:	0000004c 	.word	0x0000004c

00013398 <free>:
   13398:	e92d4070 	.word	0xe92d4070
   1339c:	e59f61e8 	.word	0xe59f61e8
   133a0:	e3500000 	.word	0xe3500000
   133a4:	e08f6006 	.word	0xe08f6006
   133a8:	e24dd018 	.word	0xe24dd018
   133ac:	0a000074 	.word	0x0a000074
   133b0:	e59f31d8 	.word	0xe59f31d8
   133b4:	e28d4008 	.word	0xe28d4008
   133b8:	e7963003 	.word	0xe7963003
   133bc:	e1a05000 	.word	0xe1a05000
   133c0:	e58d3000 	.word	0xe58d3000
   133c4:	e59f31c8 	.word	0xe59f31c8
   133c8:	e59d2000 	.word	0xe59d2000
   133cc:	e7963003 	.word	0xe7963003
   133d0:	e1a00004 	.word	0xe1a00004
   133d4:	e1a01003 	.word	0xe1a01003
   133d8:	e58d3004 	.word	0xe58d3004
   133dc:	eb000498 	.word	0xeb000498
   133e0:	e59d0000 	.word	0xe59d0000
   133e4:	eb000492 	.word	0xeb000492
   133e8:	e59f31a8 	.word	0xe59f31a8
   133ec:	e515c004 	.word	0xe515c004
   133f0:	e7962003 	.word	0xe7962003
   133f4:	e3cc1003 	.word	0xe3cc1003
   133f8:	e5923000 	.word	0xe5923000
   133fc:	e2450008 	.word	0xe2450008
   13400:	e1510003 	.word	0xe1510003
   13404:	e1a06002 	.word	0xe1a06002
   13408:	8a000008 	.word	0x8a000008
   1340c:	e1a011a1 	.word	0xe1a011a1
   13410:	e2411002 	.word	0xe2411002
   13414:	e3833003 	.word	0xe3833003
   13418:	e0821101 	.word	0xe0821101
   1341c:	e5823000 	.word	0xe5823000
   13420:	e5913004 	.word	0xe5913004
   13424:	e5853000 	.word	0xe5853000
   13428:	e5810004 	.word	0xe5810004
   1342c:	ea000051 	.word	0xea000051
   13430:	e31c0002 	.word	0xe31c0002
   13434:	1a000045 	.word	0x1a000045
   13438:	e3833001 	.word	0xe3833001
   1343c:	e5823000 	.word	0xe5823000
   13440:	e0803001 	.word	0xe0803001
   13444:	e5932004 	.word	0xe5932004
   13448:	e31c0001 	.word	0xe31c0001
   1344c:	e3c22003 	.word	0xe3c22003
   13450:	1a00000d 	.word	0x1a00000d
   13454:	e515c008 	.word	0xe515c008
   13458:	e06c0000 	.word	0xe06c0000
   1345c:	e590e008 	.word	0xe590e008
   13460:	e081100c 	.word	0xe081100c
   13464:	e59e500c 	.word	0xe59e500c
   13468:	e590c00c 	.word	0xe590c00c
   1346c:	e1550000 	.word	0xe1550000
   13470:	0a000000 	.word	0x0a000000
   13474:	eb000048 	.word	0xeb000048
   13478:	e59c5008 	.word	0xe59c5008
   1347c:	e1550000 	.word	0xe1550000
   13480:	1afffffb 	.word	0x1afffffb
   13484:	e58ec00c 	.word	0xe58ec00c
   13488:	e58ce008 	.word	0xe58ce008
   1348c:	e596c02c 	.word	0xe596c02c
   13490:	e153000c 	.word	0xe153000c
   13494:	0a000019 	.word	0x0a000019
   13498:	e083c002 	.word	0xe083c002
   1349c:	e59cc004 	.word	0xe59cc004
   134a0:	e5832004 	.word	0xe5832004
   134a4:	e31c0001 	.word	0xe31c0001
   134a8:	1a00000a 	.word	0x1a00000a
   134ac:	e593e008 	.word	0xe593e008
   134b0:	e593c00c 	.word	0xe593c00c
   134b4:	e59e500c 	.word	0xe59e500c
   134b8:	e1550003 	.word	0xe1550003
   134bc:	1affffec 	.word	0x1affffec
   134c0:	e59c5008 	.word	0xe59c5008
   134c4:	e1550003 	.word	0xe1550003
   134c8:	1affffe9 	.word	0x1affffe9
   134cc:	e0811002 	.word	0xe0811002
   134d0:	e58ec00c 	.word	0xe58ec00c
   134d4:	e58ce008 	.word	0xe58ce008
   134d8:	e596303c 	.word	0xe596303c
   134dc:	e2862034 	.word	0xe2862034
   134e0:	e5803008 	.word	0xe5803008
   134e4:	e580200c 	.word	0xe580200c
   134e8:	e586003c 	.word	0xe586003c
   134ec:	e583000c 	.word	0xe583000c
   134f0:	e3813001 	.word	0xe3813001
   134f4:	e5803004 	.word	0xe5803004
   134f8:	e7801001 	.word	0xe7801001
   134fc:	ea000003 	.word	0xea000003
   13500:	e0811002 	.word	0xe0811002
   13504:	e3813001 	.word	0xe3813001
   13508:	e5803004 	.word	0xe5803004
   1350c:	e586002c 	.word	0xe586002c
   13510:	e3510802 	.word	0xe3510802
   13514:	3a000017 	.word	0x3a000017
   13518:	e5963000 	.word	0xe5963000
   1351c:	e3130002 	.word	0xe3130002
   13520:	0a000001 	.word	0x0a000001
   13524:	e1a00006 	.word	0xe1a00006
   13528:	ebffff22 	.word	0xebffff22
   1352c:	e596302c 	.word	0xe596302c
   13530:	e5962344 	.word	0xe5962344
   13534:	e5933004 	.word	0xe5933004
   13538:	e3c33003 	.word	0xe3c33003
   1353c:	e1530002 	.word	0xe1530002
   13540:	3a00000c 	.word	0x3a00000c
   13544:	e5960348 	.word	0xe5960348
   13548:	ebfffeec 	.word	0xebfffeec
   1354c:	ea000009 	.word	0xea000009
   13550:	e5923350 	.word	0xe5923350
   13554:	e515c008 	.word	0xe515c008
   13558:	e2433001 	.word	0xe2433001
   1355c:	e5823350 	.word	0xe5823350
   13560:	e5923364 	.word	0xe5923364
   13564:	e081100c 	.word	0xe081100c
   13568:	e0613003 	.word	0xe0613003
   1356c:	e06c0000 	.word	0xe06c0000
   13570:	e5823364 	.word	0xe5823364
   13574:	eb00067a 	.word	0xeb00067a
   13578:	e3a01001 	.word	0xe3a01001
   1357c:	e1a00004 	.word	0xe1a00004
   13580:	eb000431 	.word	0xeb000431
   13584:	e28dd018 	.word	0xe28dd018
   13588:	e8bd8070 	.word	0xe8bd8070
   1358c:	0005b1f4 	.word	0x0005b1f4
   13590:	00000074 	.word	0x00000074
   13594:	00000050 	.word	0x00000050
   13598:	0000004c 	.word	0x0000004c

0001359c <__GI_abort>:
   1359c:	e59f00f4 	.word	0xe59f00f4
   135a0:	e52de004 	.word	0xe52de004
   135a4:	e08f0000 	.word	0xe08f0000
   135a8:	e24dd024 	.word	0xe24dd024
   135ac:	eb000420 	.word	0xeb000420
   135b0:	e3a03020 	.word	0xe3a03020
   135b4:	e28d1020 	.word	0xe28d1020
   135b8:	e3a02000 	.word	0xe3a02000
   135bc:	e521301c 	.word	0xe521301c
   135c0:	e3a00001 	.word	0xe3a00001
   135c4:	e58d2008 	.word	0xe58d2008
   135c8:	eb0006bb 	.word	0xeb0006bb
   135cc:	e59f30c8 	.word	0xe59f30c8
   135d0:	e08f3003 	.word	0xe08f3003
   135d4:	e5932000 	.word	0xe5932000
   135d8:	e3520000 	.word	0xe3520000
   135dc:	1a000009 	.word	0x1a000009
   135e0:	e3a02001 	.word	0xe3a02001
   135e4:	e5832000 	.word	0xe5832000
   135e8:	e59f40b0 	.word	0xe59f40b0
   135ec:	e08f4004 	.word	0xe08f4004
   135f0:	e1a00004 	.word	0xe1a00004
   135f4:	eb00040e 	.word	0xeb00040e
   135f8:	e3a00006 	.word	0xe3a00006
   135fc:	eb0002a4 	.word	0xeb0002a4
   13600:	e1a00004 	.word	0xe1a00004
   13604:	eb00040a 	.word	0xeb00040a
   13608:	e59f3094 	.word	0xe59f3094
   1360c:	e08f3003 	.word	0xe08f3003
   13610:	e5932000 	.word	0xe5932000
   13614:	e3520001 	.word	0xe3520001
   13618:	1a00000e 	.word	0x1a00000e
   1361c:	e28d400c 	.word	0xe28d400c
   13620:	e3a02002 	.word	0xe3a02002
   13624:	e5832000 	.word	0xe5832000
   13628:	e3a01000 	.word	0xe3a01000
   1362c:	e3a02014 	.word	0xe3a02014
   13630:	e1a00004 	.word	0xe1a00004
   13634:	ebfffaa9 	.word	0xebfffaa9
   13638:	e3e03000 	.word	0xe3e03000
   1363c:	e3a02000 	.word	0xe3a02000
   13640:	e1a01004 	.word	0xe1a01004
   13644:	e3a00006 	.word	0xe3a00006
   13648:	e58d3018 	.word	0xe58d3018
   1364c:	e58d301c 	.word	0xe58d301c
   13650:	eb000571 	.word	0xeb000571
   13654:	eaffffe3 	.word	0xeaffffe3
   13658:	e3520002 	.word	0xe3520002
   1365c:	1a000002 	.word	0x1a000002
   13660:	e3a02003 	.word	0xe3a02003
   13664:	e5832000 	.word	0xe5832000
   13668:	ebffffcb 	.word	0xebffffcb
   1366c:	e59f3034 	.word	0xe59f3034
   13670:	e08f3003 	.word	0xe08f3003
   13674:	e5932000 	.word	0xe5932000
   13678:	e3520003 	.word	0xe3520003
   1367c:	1a000003 	.word	0x1a000003
   13680:	e3a02004 	.word	0xe3a02004
   13684:	e3a0007f 	.word	0xe3a0007f
   13688:	e5832000 	.word	0xe5832000
   1368c:	eb000593 	.word	0xeb000593
   13690:	ebffffc1 	.word	0xebffffc1
   13694:	eafffffd 	.word	0xeafffffd
   13698:	0005b1e8 	.word	0x0005b1e8
   1369c:	0005d2ac 	.word	0x0005d2ac
   136a0:	0005b1a0 	.word	0x0005b1a0
   136a4:	0005d270 	.word	0x0005d270
   136a8:	0005d20c 	.word	0x0005d20c
   136ac:	e92d41f3 	.word	0xe92d41f3
   136b0:	e59f010c 	.word	0xe59f010c
   136b4:	e3a04000 	.word	0xe3a04000
   136b8:	e08f0000 	.word	0xe08f0000
   136bc:	e58d4004 	.word	0xe58d4004
   136c0:	eb000806 	.word	0xeb000806
   136c4:	e2505000 	.word	0xe2505000
   136c8:	0a00001d 	.word	0x0a00001d
   136cc:	e59f70f4 	.word	0xe59f70f4
   136d0:	e59f80f4 	.word	0xe59f80f4
   136d4:	e08f7007 	.word	0xe08f7007
   136d8:	e28d6004 	.word	0xe28d6004
   136dc:	e08f8008 	.word	0xe08f8008
   136e0:	e1a03007 	.word	0xe1a03007
   136e4:	e59f20e4 	.word	0xe59f20e4
   136e8:	e1a01006 	.word	0xe1a01006
   136ec:	e1a00005 	.word	0xe1a00005
   136f0:	eb000817 	.word	0xeb000817
   136f4:	e3500000 	.word	0xe3500000
   136f8:	0a00002a 	.word	0x0a00002a
   136fc:	e59d3004 	.word	0xe59d3004
   13700:	e5933000 	.word	0xe5933000
   13704:	e5d32000 	.word	0xe5d32000
   13708:	e3520063 	.word	0xe3520063
   1370c:	1afffff3 	.word	0x1afffff3
   13710:	e5d32001 	.word	0xe5d32001
   13714:	e3520070 	.word	0xe3520070
   13718:	1afffff0 	.word	0x1afffff0
   1371c:	e5d32002 	.word	0xe5d32002
   13720:	e3520075 	.word	0xe3520075
   13724:	1affffed 	.word	0x1affffed
   13728:	e5d33003 	.word	0xe5d33003
   1372c:	e5982000 	.word	0xe5982000
   13730:	e1a03083 	.word	0xe1a03083
   13734:	e19230b3 	.word	0xe19230b3
   13738:	e3130008 	.word	0xe3130008
   1373c:	12844001 	.word	0x12844001
   13740:	eaffffe6 	.word	0xeaffffe6
   13744:	e59f0088 	.word	0xe59f0088
   13748:	e08f0000 	.word	0xe08f0000
   1374c:	eb0007e3 	.word	0xeb0007e3
   13750:	e2505000 	.word	0xe2505000
   13754:	01a04005 	.word	0x01a04005
   13758:	0a000012 	.word	0x0a000012
   1375c:	e59f7074 	.word	0xe59f7074
   13760:	e59f8074 	.word	0xe59f8074
   13764:	e08f7007 	.word	0xe08f7007
   13768:	e28d6004 	.word	0xe28d6004
   1376c:	e08f8008 	.word	0xe08f8008
   13770:	e1a03007 	.word	0xe1a03007
   13774:	e59f2064 	.word	0xe59f2064
   13778:	e1a01006 	.word	0xe1a01006
   1377c:	e1a00005 	.word	0xe1a00005
   13780:	eb0007f3 	.word	0xeb0007f3
   13784:	e3500000 	.word	0xe3500000
   13788:	0a000006 	.word	0x0a000006
   1378c:	e59d3004 	.word	0xe59d3004
   13790:	e1a00008 	.word	0xe1a00008
   13794:	e5931000 	.word	0xe5931000
   13798:	eb001b74 	.word	0xeb001b74
   1379c:	e3500000 	.word	0xe3500000
   137a0:	02844001 	.word	0x02844001
   137a4:	eafffff1 	.word	0xeafffff1
   137a8:	e1a00005 	.word	0xe1a00005
   137ac:	eb0007da 	.word	0xeb0007da
   137b0:	e3540000 	.word	0xe3540000
   137b4:	11a00004 	.word	0x11a00004
   137b8:	03a00001 	.word	0x03a00001
   137bc:	e28dd008 	.word	0xe28dd008
   137c0:	e8bd81f0 	.word	0xe8bd81f0
   137c4:	0000b113 	.word	0x0000b113
   137c8:	0000b17e 	.word	0x0000b17e
   137cc:	0005b0cc 	.word	0x0005b0cc
   137d0:	00000102 	.word	0x00000102
   137d4:	0000b08e 	.word	0x0000b08e
   137d8:	0000b063 	.word	0x0000b063
   137dc:	0000b078 	.word	0x0000b078
   137e0:	00070202 	.word	0x00070202

000137e4 <__GI_sysconf>:
   137e4:	e92d41f3 	.word	0xe92d41f3
   137e8:	e35000f0 	.word	0xe35000f0
   137ec:	908ff100 	.word	0x908ff100
   137f0:	ea0000f2 	.word	0xea0000f2
   137f4:	ea0000f8 	.word	0xea0000f8
   137f8:	ea0001f3 	.word	0xea0001f3
   137fc:	ea0000ed 	.word	0xea0000ed
   13800:	ea000100 	.word	0xea000100
   13804:	ea000101 	.word	0xea000101
   13808:	ea000102 	.word	0xea000102
   1380c:	ea000103 	.word	0xea000103
   13810:	ea000104 	.word	0xea000104
   13814:	ea000105 	.word	0xea000105
   13818:	ea000106 	.word	0xea000106
   1381c:	ea000107 	.word	0xea000107
   13820:	ea000108 	.word	0xea000108
   13824:	ea000109 	.word	0xea000109
   13828:	ea00010a 	.word	0xea00010a
   1382c:	ea00010b 	.word	0xea00010b
   13830:	ea00010c 	.word	0xea00010c
   13834:	ea00010d 	.word	0xea00010d
   13838:	ea00010e 	.word	0xea00010e
   1383c:	ea00010f 	.word	0xea00010f
   13840:	ea000110 	.word	0xea000110
   13844:	ea000111 	.word	0xea000111
   13848:	ea000112 	.word	0xea000112
   1384c:	ea000113 	.word	0xea000113
   13850:	ea0001dd 	.word	0xea0001dd
   13854:	ea0001dc 	.word	0xea0001dc
   13858:	ea000117 	.word	0xea000117
   1385c:	ea000118 	.word	0xea000118
   13860:	ea0001d9 	.word	0xea0001d9
   13864:	ea000118 	.word	0xea000118
   13868:	ea00010e 	.word	0xea00010e
   1386c:	ea00010f 	.word	0xea00010f
   13870:	ea000117 	.word	0xea000117
   13874:	ea0001d4 	.word	0xea0001d4
   13878:	ea000117 	.word	0xea000117
   1387c:	ea0001d2 	.word	0xea0001d2
   13880:	ea0001d1 	.word	0xea0001d1
   13884:	ea000116 	.word	0xea000116
   13888:	ea000117 	.word	0xea000117
   1388c:	ea000118 	.word	0xea000118
   13890:	ea000119 	.word	0xea000119
   13894:	ea00011a 	.word	0xea00011a
   13898:	ea0001cb 	.word	0xea0001cb
   1389c:	ea00011a 	.word	0xea00011a
   138a0:	ea00011b 	.word	0xea00011b
   138a4:	ea00011c 	.word	0xea00011c
   138a8:	ea00011d 	.word	0xea00011d
   138ac:	ea000120 	.word	0xea000120
   138b0:	ea000121 	.word	0xea000121
   138b4:	ea000122 	.word	0xea000122
   138b8:	ea0001c3 	.word	0xea0001c3
   138bc:	ea0001c2 	.word	0xea0001c2
   138c0:	ea000121 	.word	0xea000121
   138c4:	ea0001c0 	.word	0xea0001c0
   138c8:	ea0001bf 	.word	0xea0001bf
   138cc:	ea0001be 	.word	0xea0001be
   138d0:	ea0001bd 	.word	0xea0001bd
   138d4:	ea0001bc 	.word	0xea0001bc
   138d8:	ea0001bb 	.word	0xea0001bb
   138dc:	ea0001ba 	.word	0xea0001ba
   138e0:	ea0001b9 	.word	0xea0001b9
   138e4:	ea000110 	.word	0xea000110
   138e8:	ea0001b7 	.word	0xea0001b7
   138ec:	ea0001b6 	.word	0xea0001b6
   138f0:	ea0001b5 	.word	0xea0001b5
   138f4:	ea0001b4 	.word	0xea0001b4
   138f8:	ea0001b3 	.word	0xea0001b3
   138fc:	ea0001b2 	.word	0xea0001b2
   13900:	ea000115 	.word	0xea000115
   13904:	ea000116 	.word	0xea000116
   13908:	ea000117 	.word	0xea000117
   1390c:	ea000118 	.word	0xea000118
   13910:	ea000119 	.word	0xea000119
   13914:	ea00011a 	.word	0xea00011a
   13918:	ea00011b 	.word	0xea00011b
   1391c:	ea00011c 	.word	0xea00011c
   13920:	ea00011d 	.word	0xea00011d
   13924:	ea0001a8 	.word	0xea0001a8
   13928:	ea00011d 	.word	0xea00011d
   1392c:	ea00011e 	.word	0xea00011e
   13930:	ea00011f 	.word	0xea00011f
   13934:	ea000120 	.word	0xea000120
   13938:	ea000121 	.word	0xea000121
   1393c:	ea000122 	.word	0xea000122
   13940:	ea000123 	.word	0xea000123
   13944:	ea000146 	.word	0xea000146
   13948:	ea00019f 	.word	0xea00019f
   1394c:	ea00019e 	.word	0xea00019e
   13950:	ea000145 	.word	0xea000145
   13954:	ea000146 	.word	0xea000146
   13958:	ea000147 	.word	0xea000147
   1395c:	ea000148 	.word	0xea000148
   13960:	ea000149 	.word	0xea000149
   13964:	ea00014a 	.word	0xea00014a
   13968:	ea00014b 	.word	0xea00014b
   1396c:	ea00014c 	.word	0xea00014c
   13970:	ea0000f7 	.word	0xea0000f7
   13974:	ea000194 	.word	0xea000194
   13978:	ea000193 	.word	0xea000193
   1397c:	ea00014a 	.word	0xea00014a
   13980:	ea00014b 	.word	0xea00014b
   13984:	ea00014c 	.word	0xea00014c
   13988:	ea00014d 	.word	0xea00014d
   1398c:	ea00014e 	.word	0xea00014e
   13990:	ea00014f 	.word	0xea00014f
   13994:	ea000150 	.word	0xea000150
   13998:	ea000151 	.word	0xea000151
   1399c:	ea000152 	.word	0xea000152
   139a0:	ea000153 	.word	0xea000153
   139a4:	ea000154 	.word	0xea000154
   139a8:	ea000155 	.word	0xea000155
   139ac:	ea000156 	.word	0xea000156
   139b0:	ea000157 	.word	0xea000157
   139b4:	ea000158 	.word	0xea000158
   139b8:	ea000159 	.word	0xea000159
   139bc:	ea00015a 	.word	0xea00015a
   139c0:	ea00015b 	.word	0xea00015b
   139c4:	ea000180 	.word	0xea000180
   139c8:	ea00017f 	.word	0xea00017f
   139cc:	ea00015a 	.word	0xea00015a
   139d0:	ea00015b 	.word	0xea00015b
   139d4:	ea00015c 	.word	0xea00015c
   139d8:	ea00015d 	.word	0xea00015d
   139dc:	ea00015e 	.word	0xea00015e
   139e0:	ea00015f 	.word	0xea00015f
   139e4:	ea000160 	.word	0xea000160
   139e8:	ea000161 	.word	0xea000161
   139ec:	ea000162 	.word	0xea000162
   139f0:	ea000175 	.word	0xea000175
   139f4:	ea000174 	.word	0xea000174
   139f8:	ea000165 	.word	0xea000165
   139fc:	ea000166 	.word	0xea000166
   13a00:	ea000167 	.word	0xea000167
   13a04:	ea00006d 	.word	0xea00006d
   13a08:	ea00006c 	.word	0xea00006c
   13a0c:	ea00006b 	.word	0xea00006b
   13a10:	ea00006a 	.word	0xea00006a
   13a14:	ea000069 	.word	0xea000069
   13a18:	ea000068 	.word	0xea000068
   13a1c:	ea000067 	.word	0xea000067
   13a20:	ea000169 	.word	0xea000169
   13a24:	ea000065 	.word	0xea000065
   13a28:	ea000064 	.word	0xea000064
   13a2c:	ea000063 	.word	0xea000063
   13a30:	ea000062 	.word	0xea000062
   13a34:	ea000061 	.word	0xea000061
   13a38:	ea000060 	.word	0xea000060
   13a3c:	ea00005f 	.word	0xea00005f
   13a40:	ea00005e 	.word	0xea00005e
   13a44:	ea00005d 	.word	0xea00005d
   13a48:	ea000157 	.word	0xea000157
   13a4c:	ea00005b 	.word	0xea00005b
   13a50:	ea00005a 	.word	0xea00005a
   13a54:	ea000059 	.word	0xea000059
   13a58:	ea000058 	.word	0xea000058
   13a5c:	ea000057 	.word	0xea000057
   13a60:	ea000056 	.word	0xea000056
   13a64:	ea000055 	.word	0xea000055
   13a68:	ea000054 	.word	0xea000054
   13a6c:	ea000053 	.word	0xea000053
   13a70:	ea000052 	.word	0xea000052
   13a74:	ea000051 	.word	0xea000051
   13a78:	ea000050 	.word	0xea000050
   13a7c:	ea00004f 	.word	0xea00004f
   13a80:	ea00004e 	.word	0xea00004e
   13a84:	ea00004d 	.word	0xea00004d
   13a88:	ea00004c 	.word	0xea00004c
   13a8c:	ea00004b 	.word	0xea00004b
   13a90:	ea00004a 	.word	0xea00004a
   13a94:	ea000049 	.word	0xea000049
   13a98:	ea000048 	.word	0xea000048
   13a9c:	ea000047 	.word	0xea000047
   13aa0:	ea000046 	.word	0xea000046
   13aa4:	ea000045 	.word	0xea000045
   13aa8:	ea000044 	.word	0xea000044
   13aac:	ea000043 	.word	0xea000043
   13ab0:	ea000042 	.word	0xea000042
   13ab4:	ea000041 	.word	0xea000041
   13ab8:	ea000040 	.word	0xea000040
   13abc:	ea00003f 	.word	0xea00003f
   13ac0:	ea00003e 	.word	0xea00003e
   13ac4:	ea00003d 	.word	0xea00003d
   13ac8:	ea00003c 	.word	0xea00003c
   13acc:	ea00003b 	.word	0xea00003b
   13ad0:	ea00003a 	.word	0xea00003a
   13ad4:	ea000039 	.word	0xea000039
   13ad8:	ea000038 	.word	0xea000038
   13adc:	ea000037 	.word	0xea000037
   13ae0:	ea000036 	.word	0xea000036
   13ae4:	ea000035 	.word	0xea000035
   13ae8:	ea000034 	.word	0xea000034
   13aec:	ea000033 	.word	0xea000033
   13af0:	ea000032 	.word	0xea000032
   13af4:	ea000031 	.word	0xea000031
   13af8:	ea000030 	.word	0xea000030
   13afc:	ea00002f 	.word	0xea00002f
   13b00:	ea00002e 	.word	0xea00002e
   13b04:	ea00002d 	.word	0xea00002d
   13b08:	ea00002c 	.word	0xea00002c
   13b0c:	ea00002b 	.word	0xea00002b
   13b10:	ea00002a 	.word	0xea00002a
   13b14:	ea000029 	.word	0xea000029
   13b18:	ea000028 	.word	0xea000028
   13b1c:	ea000027 	.word	0xea000027
   13b20:	ea000026 	.word	0xea000026
   13b24:	ea000025 	.word	0xea000025
   13b28:	ea000024 	.word	0xea000024
   13b2c:	ea000023 	.word	0xea000023
   13b30:	ea000022 	.word	0xea000022
   13b34:	ea000021 	.word	0xea000021
   13b38:	ea000020 	.word	0xea000020
   13b3c:	ea00001f 	.word	0xea00001f
   13b40:	ea00001e 	.word	0xea00001e
   13b44:	ea00001d 	.word	0xea00001d
   13b48:	ea00001c 	.word	0xea00001c
   13b4c:	ea00001b 	.word	0xea00001b
   13b50:	ea00001a 	.word	0xea00001a
   13b54:	ea000019 	.word	0xea000019
   13b58:	ea000018 	.word	0xea000018
   13b5c:	ea000017 	.word	0xea000017
   13b60:	ea000016 	.word	0xea000016
   13b64:	ea000015 	.word	0xea000015
   13b68:	ea000014 	.word	0xea000014
   13b6c:	ea000013 	.word	0xea000013
   13b70:	ea000012 	.word	0xea000012
   13b74:	ea000011 	.word	0xea000011
   13b78:	ea000010 	.word	0xea000010
   13b7c:	ea00000f 	.word	0xea00000f
   13b80:	ea00000e 	.word	0xea00000e
   13b84:	ea00000d 	.word	0xea00000d
   13b88:	ea00000c 	.word	0xea00000c
   13b8c:	ea00000b 	.word	0xea00000b
   13b90:	ea00000a 	.word	0xea00000a
   13b94:	ea000009 	.word	0xea000009
   13b98:	ea000008 	.word	0xea000008
   13b9c:	ea000007 	.word	0xea000007
   13ba0:	ea000006 	.word	0xea000006
   13ba4:	ea000005 	.word	0xea000005
   13ba8:	ea0000f5 	.word	0xea0000f5
   13bac:	ea0000f6 	.word	0xea0000f6
   13bb0:	ea000105 	.word	0xea000105
   13bb4:	ea000104 	.word	0xea000104
   13bb8:	e3a00064 	.word	0xe3a00064
   13bbc:	ea000103 	.word	0xea000103
   13bc0:	e59f3410 	.word	0xe59f3410
   13bc4:	eb000441 	.word	0xeb000441
   13bc8:	e3a02016 	.word	0xe3a02016
   13bcc:	e79f3003 	.word	0xe79f3003
   13bd0:	e7802003 	.word	0xe7802003
   13bd4:	e3e00000 	.word	0xe3e00000
   13bd8:	ea0000fc 	.word	0xea0000fc
   13bdc:	e1a0100d 	.word	0xe1a0100d
   13be0:	e3a00003 	.word	0xe3a00003
   13be4:	eb000477 	.word	0xeb000477
   13be8:	e3500000 	.word	0xe3500000
   13bec:	13a00802 	.word	0x13a00802
   13bf0:	1a0000f6 	.word	0x1a0000f6
   13bf4:	e59d0000 	.word	0xe59d0000
   13bf8:	e3500702 	.word	0xe3500702
   13bfc:	21a00120 	.word	0x21a00120
   13c00:	33a00802 	.word	0x33a00802
   13c04:	ea0000f1 	.word	0xea0000f1
   13c08:	e3a00801 	.word	0xe3a00801
   13c0c:	ea0000ef 	.word	0xea0000ef
   13c10:	eb00044d 	.word	0xeb00044d
   13c14:	ea0000ed 	.word	0xea0000ed
   13c18:	e3a00010 	.word	0xe3a00010
   13c1c:	ea0000eb 	.word	0xea0000eb
   13c20:	e3a00006 	.word	0xe3a00006
   13c24:	ea0000e9 	.word	0xea0000e9
   13c28:	e3a00001 	.word	0xe3a00001
   13c2c:	ea0000e7 	.word	0xea0000e7
   13c30:	e3a00001 	.word	0xe3a00001
   13c34:	ea0000e5 	.word	0xea0000e5
   13c38:	e3a00001 	.word	0xe3a00001
   13c3c:	ea0000e3 	.word	0xea0000e3
   13c40:	e3a00001 	.word	0xe3a00001
   13c44:	ea0000e1 	.word	0xea0000e1
   13c48:	e3a00001 	.word	0xe3a00001
   13c4c:	ea0000df 	.word	0xea0000df
   13c50:	e3a00001 	.word	0xe3a00001
   13c54:	ea0000dd 	.word	0xea0000dd
   13c58:	e3a00001 	.word	0xe3a00001
   13c5c:	ea0000db 	.word	0xea0000db
   13c60:	e3a00001 	.word	0xe3a00001
   13c64:	ea0000d9 	.word	0xea0000d9
   13c68:	e3a00001 	.word	0xe3a00001
   13c6c:	ea0000d7 	.word	0xea0000d7
   13c70:	e3a00001 	.word	0xe3a00001
   13c74:	ea0000d5 	.word	0xea0000d5
   13c78:	e3a00001 	.word	0xe3a00001
   13c7c:	ea0000d3 	.word	0xea0000d3
   13c80:	e3a00001 	.word	0xe3a00001
   13c84:	ea0000d1 	.word	0xea0000d1
   13c88:	e3a00001 	.word	0xe3a00001
   13c8c:	ea0000cf 	.word	0xea0000cf
   13c90:	e3a00001 	.word	0xe3a00001
   13c94:	ea0000cd 	.word	0xea0000cd
   13c98:	e3a00001 	.word	0xe3a00001
   13c9c:	ea0000cb 	.word	0xea0000cb
   13ca0:	e3a00001 	.word	0xe3a00001
   13ca4:	ea0000c9 	.word	0xea0000c9
   13ca8:	e59f032c 	.word	0xe59f032c
   13cac:	ea0000c7 	.word	0xea0000c7
   13cb0:	e28dd008 	.word	0xe28dd008
   13cb4:	e8bd41f0 	.word	0xe8bd41f0
   13cb8:	ea000438 	.word	0xea000438
   13cbc:	e3a00014 	.word	0xe3a00014
   13cc0:	ea0000c2 	.word	0xea0000c2
   13cc4:	e3e00102 	.word	0xe3e00102
   13cc8:	ea0000c0 	.word	0xea0000c0
   13ccc:	e3a00902 	.word	0xe3a00902
   13cd0:	ea0000be 	.word	0xea0000be
   13cd4:	e3a00020 	.word	0xe3a00020
   13cd8:	ea0000bc 	.word	0xea0000bc
   13cdc:	e3e00102 	.word	0xe3e00102
   13ce0:	ea0000ba 	.word	0xea0000ba
   13ce4:	e3a00063 	.word	0xe3a00063
   13ce8:	ea0000b8 	.word	0xea0000b8
   13cec:	e3a00b02 	.word	0xe3a00b02
   13cf0:	ea0000b6 	.word	0xea0000b6
   13cf4:	e3a00063 	.word	0xe3a00063
   13cf8:	ea0000b4 	.word	0xea0000b4
   13cfc:	e3a00ffa 	.word	0xe3a00ffa
   13d00:	ea0000b2 	.word	0xea0000b2
   13d04:	e3a000ff 	.word	0xe3a000ff
   13d08:	ea0000b0 	.word	0xea0000b0
   13d0c:	e3a00020 	.word	0xe3a00020
   13d10:	ea0000ae 	.word	0xea0000ae
   13d14:	e3a00b02 	.word	0xe3a00b02
   13d18:	ea0000ac 	.word	0xea0000ac
   13d1c:	e59f02bc 	.word	0xe59f02bc
   13d20:	ea0000aa 	.word	0xea0000aa
   13d24:	e3a00b02 	.word	0xe3a00b02
   13d28:	ea0000a8 	.word	0xea0000a8
   13d2c:	e3a00b01 	.word	0xe3a00b01
   13d30:	ea0000a6 	.word	0xea0000a6
   13d34:	e59f02a0 	.word	0xe59f02a0
   13d38:	ea0000a4 	.word	0xea0000a4
   13d3c:	e59f0298 	.word	0xe59f0298
   13d40:	ea0000a2 	.word	0xea0000a2
   13d44:	e59f0290 	.word	0xe59f0290
   13d48:	ea0000a0 	.word	0xea0000a0
   13d4c:	e59f0288 	.word	0xe59f0288
   13d50:	ea00009e 	.word	0xea00009e
   13d54:	e59f0288 	.word	0xe59f0288
   13d58:	ea00009c 	.word	0xea00009c
   13d5c:	e3a00001 	.word	0xe3a00001
   13d60:	ea00009a 	.word	0xea00009a
   13d64:	e3a00001 	.word	0xe3a00001
   13d68:	ea000098 	.word	0xea000098
   13d6c:	e3a00c01 	.word	0xe3a00c01
   13d70:	ea000096 	.word	0xea000096
   13d74:	e3a00c01 	.word	0xe3a00c01
   13d78:	ea000094 	.word	0xea000094
   13d7c:	e3a00c01 	.word	0xe3a00c01
   13d80:	ea000092 	.word	0xea000092
   13d84:	e3a00020 	.word	0xe3a00020
   13d88:	ea000090 	.word	0xea000090
   13d8c:	e3a00004 	.word	0xe3a00004
   13d90:	ea00008e 	.word	0xea00008e
   13d94:	e3a00b01 	.word	0xe3a00b01
   13d98:	ea00008c 	.word	0xea00008c
   13d9c:	e3a00901 	.word	0xe3a00901
   13da0:	ea00008a 	.word	0xea00008a
   13da4:	e3a00001 	.word	0xe3a00001
   13da8:	ea000088 	.word	0xea000088
   13dac:	e3a00001 	.word	0xe3a00001
   13db0:	ea000086 	.word	0xea000086
   13db4:	e3a00001 	.word	0xe3a00001
   13db8:	ea000084 	.word	0xea000084
   13dbc:	e3a00001 	.word	0xe3a00001
   13dc0:	ea000082 	.word	0xea000082
   13dc4:	e3a00001 	.word	0xe3a00001
   13dc8:	ea000080 	.word	0xea000080
   13dcc:	e3a00001 	.word	0xe3a00001
   13dd0:	ea00007e 	.word	0xea00007e
   13dd4:	e59f020c 	.word	0xe59f020c
   13dd8:	e08f0000 	.word	0xe08f0000
   13ddc:	eb0005dc 	.word	0xeb0005dc
   13de0:	e2505000 	.word	0xe2505000
   13de4:	0a000018 	.word	0x0a000018
   13de8:	e59f81fc 	.word	0xe59f81fc
   13dec:	e59f61fc 	.word	0xe59f61fc
   13df0:	e59f71fc 	.word	0xe59f71fc
   13df4:	e3a04000 	.word	0xe3a04000
   13df8:	e08f8008 	.word	0xe08f8008
   13dfc:	e1a00005 	.word	0xe1a00005
   13e00:	eb000604 	.word	0xeb000604
   13e04:	e3500000 	.word	0xe3500000
   13e08:	0a00000c 	.word	0x0a00000c
   13e0c:	e1d031b2 	.word	0xe1d031b2
   13e10:	e1530006 	.word	0xe1530006
   13e14:	1afffff8 	.word	0x1afffff8
   13e18:	e1d031b4 	.word	0xe1d031b4
   13e1c:	e1530007 	.word	0xe1530007
   13e20:	1afffff5 	.word	0x1afffff5
   13e24:	e5d03016 	.word	0xe5d03016
   13e28:	e5982000 	.word	0xe5982000
   13e2c:	e1a03083 	.word	0xe1a03083
   13e30:	e19230b3 	.word	0xe19230b3
   13e34:	e3130008 	.word	0xe3130008
   13e38:	12844001 	.word	0x12844001
   13e3c:	eaffffee 	.word	0xeaffffee
   13e40:	e1a00005 	.word	0xe1a00005
   13e44:	eb000540 	.word	0xeb000540
   13e48:	ea000001 	.word	0xea000001
   13e4c:	ebfffe16 	.word	0xebfffe16
   13e50:	e1a04000 	.word	0xe1a04000
   13e54:	e3540000 	.word	0xe3540000
   13e58:	11a00004 	.word	0x11a00004
   13e5c:	03a00001 	.word	0x03a00001
   13e60:	ea00005a 	.word	0xea00005a
   13e64:	ebfffe10 	.word	0xebfffe10
   13e68:	ea000058 	.word	0xea000058
   13e6c:	e3e00102 	.word	0xe3e00102
   13e70:	ea000056 	.word	0xea000056
   13e74:	e3a00a01 	.word	0xe3a00a01
   13e78:	ea000054 	.word	0xea000054
   13e7c:	e3a00f7d 	.word	0xe3a00f7d
   13e80:	ea000052 	.word	0xea000052
   13e84:	e3a00004 	.word	0xe3a00004
   13e88:	ea000050 	.word	0xea000050
   13e8c:	e3a00001 	.word	0xe3a00001
   13e90:	ea00004e 	.word	0xea00004e
   13e94:	e3a00001 	.word	0xe3a00001
   13e98:	ea00004c 	.word	0xea00004c
   13e9c:	e3a00001 	.word	0xe3a00001
   13ea0:	ea00004a 	.word	0xea00004a
   13ea4:	e3a00001 	.word	0xe3a00001
   13ea8:	ea000048 	.word	0xea000048
   13eac:	e3a00001 	.word	0xe3a00001
   13eb0:	ea000046 	.word	0xea000046
   13eb4:	e3a00001 	.word	0xe3a00001
   13eb8:	ea000044 	.word	0xea000044
   13ebc:	e3a00001 	.word	0xe3a00001
   13ec0:	ea000042 	.word	0xea000042
   13ec4:	e3a00008 	.word	0xe3a00008
   13ec8:	ea000040 	.word	0xea000040
   13ecc:	e3a000ff 	.word	0xe3a000ff
   13ed0:	ea00003e 	.word	0xea00003e
   13ed4:	e3a00000 	.word	0xe3a00000
   13ed8:	ea00003c 	.word	0xea00003c
   13edc:	e3e00102 	.word	0xe3e00102
   13ee0:	ea00003a 	.word	0xea00003a
   13ee4:	e3a00102 	.word	0xe3a00102
   13ee8:	ea000038 	.word	0xea000038
   13eec:	e3a00020 	.word	0xe3a00020
   13ef0:	ea000036 	.word	0xea000036
   13ef4:	e3a00020 	.word	0xe3a00020
   13ef8:	ea000034 	.word	0xea000034
   13efc:	e3a00010 	.word	0xe3a00010
   13f00:	ea000032 	.word	0xea000032
   13f04:	e3a00014 	.word	0xe3a00014
   13f08:	ea000030 	.word	0xea000030
   13f0c:	e59f00cc 	.word	0xe59f00cc
   13f10:	ea00002e 	.word	0xea00002e
   13f14:	e3a0007f 	.word	0xe3a0007f
   13f18:	ea00002c 	.word	0xea00002c
   13f1c:	e3e0007f 	.word	0xe3e0007f
   13f20:	ea00002a 	.word	0xea00002a
   13f24:	e59f00b4 	.word	0xe59f00b4
   13f28:	ea000028 	.word	0xea000028
   13f2c:	e59f00c4 	.word	0xe59f00c4
   13f30:	ea000026 	.word	0xea000026
   13f34:	e3a000ff 	.word	0xe3a000ff
   13f38:	ea000024 	.word	0xea000024
   13f3c:	e59f00b8 	.word	0xe59f00b8
   13f40:	ea000022 	.word	0xea000022
   13f44:	e3a00009 	.word	0xe3a00009
   13f48:	ea000020 	.word	0xea000020
   13f4c:	e3a00b02 	.word	0xe3a00b02
   13f50:	ea00001e 	.word	0xea00001e
   13f54:	e3e00102 	.word	0xe3e00102
   13f58:	ea00001c 	.word	0xea00001c
   13f5c:	e3e00102 	.word	0xe3e00102
   13f60:	ea00001a 	.word	0xea00001a
   13f64:	e3e00102 	.word	0xe3e00102
   13f68:	ea000018 	.word	0xea000018
   13f6c:	e3e00102 	.word	0xe3e00102
   13f70:	ea000016 	.word	0xea000016
   13f74:	e3a00001 	.word	0xe3a00001
   13f78:	ea000014 	.word	0xea000014
   13f7c:	e3a00001 	.word	0xe3a00001
   13f80:	ea000012 	.word	0xea000012
   13f84:	e3a00001 	.word	0xe3a00001
   13f88:	ea000010 	.word	0xea000010
   13f8c:	e3a00001 	.word	0xe3a00001
   13f90:	ea00000e 	.word	0xea00000e
   13f94:	e3a00001 	.word	0xe3a00001
   13f98:	ea00000c 	.word	0xea00000c
   13f9c:	e3a00001 	.word	0xe3a00001
   13fa0:	ea00000a 	.word	0xea00000a
   13fa4:	e3a00001 	.word	0xe3a00001
   13fa8:	ea000008 	.word	0xea000008
   13fac:	e3a00001 	.word	0xe3a00001
   13fb0:	e1a0100d 	.word	0xe1a0100d
   13fb4:	e3a07f42 	.word	0xe3a07f42
   13fb8:	ef000000 	.word	0xef000000
   13fbc:	e3700a01 	.word	0xe3700a01
   13fc0:	e59f0014 	.word	0xe59f0014
   13fc4:	83e00000 	.word	0x83e00000
   13fc8:	ea000000 	.word	0xea000000
   13fcc:	e3e00000 	.word	0xe3e00000
   13fd0:	e28dd008 	.word	0xe28dd008
   13fd4:	e8bd81f0 	.word	0xe8bd81f0
   13fd8:	0005aa34 	.word	0x0005aa34
   13fdc:	00030db0 	.word	0x00030db0
   13fe0:	00007fff 	.word	0x00007fff
   13fe4:	00031069 	.word	0x00031069
   13fe8:	0000aa16 	.word	0x0000aa16
   13fec:	0005a9b0 	.word	0x0005a9b0
   13ff0:	00006304 	.word	0x00006304
   13ff4:	00007570 	.word	0x00007570
   13ff8:	ffff8000 	.word	0xffff8000
   13ffc:	0000ffff 	.word	0x0000ffff

00014000 <__lll_lock_wait_private>:
   14000:	e92d40b0 	.word	0xe92d40b0
   14004:	e1a05000 	.word	0xe1a05000
   14008:	e3a01002 	.word	0xe3a01002
   1400c:	e1a02005 	.word	0xe1a02005
   14010:	e3a04001 	.word	0xe3a04001
   14014:	e5923000 	.word	0xe5923000
   14018:	e1530004 	.word	0xe1530004
   1401c:	1a000005 	.word	0x1a000005
   14020:	e1a00004 	.word	0xe1a00004
   14024:	e3e03a0f 	.word	0xe3e03a0f
   14028:	e1a0e00f 	.word	0xe1a0e00f
   1402c:	e243f03f 	.word	0xe243f03f
   14030:	3afffff7 	.word	0x3afffff7
   14034:	e1a03004 	.word	0xe1a03004
   14038:	e3530000 	.word	0xe3530000
   1403c:	0a000005 	.word	0x0a000005
   14040:	e1a00005 	.word	0xe1a00005
   14044:	e3a01080 	.word	0xe3a01080
   14048:	e3a02002 	.word	0xe3a02002
   1404c:	e3a03000 	.word	0xe3a03000
   14050:	e3a070f0 	.word	0xe3a070f0
   14054:	ef000000 	.word	0xef000000
   14058:	e3a01002 	.word	0xe3a01002
   1405c:	e1a02005 	.word	0xe1a02005
   14060:	e3a04000 	.word	0xe3a04000
   14064:	e5923000 	.word	0xe5923000
   14068:	e1530004 	.word	0xe1530004
   1406c:	1a000005 	.word	0x1a000005
   14070:	e1a00004 	.word	0xe1a00004
   14074:	e3e03a0f 	.word	0xe3e03a0f
   14078:	e1a0e00f 	.word	0xe1a0e00f
   1407c:	e243f03f 	.word	0xe243f03f
   14080:	3afffff7 	.word	0x3afffff7
   14084:	e1a03004 	.word	0xe1a03004
   14088:	e1530004 	.word	0xe1530004
   1408c:	1affffdd 	.word	0x1affffdd
   14090:	e8bd80b0 	.word	0xe8bd80b0

00014094 <__GI_raise>:
   14094:	e59f30fc 	.word	0xe59f30fc
   14098:	e92d40f7 	.word	0xe92d40f7
   1409c:	e59f20f8 	.word	0xe59f20f8
   140a0:	e08f3003 	.word	0xe08f3003
   140a4:	e7935002 	.word	0xe7935002
   140a8:	e1a06000 	.word	0xe1a06000
   140ac:	e5953000 	.word	0xe5953000
   140b0:	eb000306 	.word	0xeb000306
   140b4:	e58d3004 	.word	0xe58d3004
   140b8:	e1a03000 	.word	0xe1a03000
   140bc:	e5134428 	.word	0xe5134428
   140c0:	e5100424 	.word	0xe5100424
   140c4:	e3540000 	.word	0xe3540000
   140c8:	1a000004 	.word	0x1a000004
   140cc:	e3a070e0 	.word	0xe3a070e0
   140d0:	ef000000 	.word	0xef000000
   140d4:	e5030428 	.word	0xe5030428
   140d8:	e1a04000 	.word	0xe1a04000
   140dc:	ea000005 	.word	0xea000005
   140e0:	e3500000 	.word	0xe3500000
   140e4:	ca000003 	.word	0xca000003
   140e8:	e3c03102 	.word	0xe3c03102
   140ec:	e3530000 	.word	0xe3530000
   140f0:	12600000 	.word	0x12600000
   140f4:	01a00004 	.word	0x01a00004
   140f8:	e1a01004 	.word	0xe1a01004
   140fc:	e1a02006 	.word	0xe1a02006
   14100:	e3a07f43 	.word	0xe3a07f43
   14104:	ef000000 	.word	0xef000000
   14108:	e3700a01 	.word	0xe3700a01
   1410c:	e1a03000 	.word	0xe1a03000
   14110:	9a000005 	.word	0x9a000005
   14114:	e59f2084 	.word	0xe59f2084
   14118:	eb0002ec 	.word	0xeb0002ec
   1411c:	e2633000 	.word	0xe2633000
   14120:	e79f2002 	.word	0xe79f2002
   14124:	e7803002 	.word	0xe7803002
   14128:	ea000001 	.word	0xea000001
   1412c:	e3700001 	.word	0xe3700001
   14130:	1a000011 	.word	0x1a000011
   14134:	e59f3068 	.word	0xe59f3068
   14138:	eb0002e4 	.word	0xeb0002e4
   1413c:	e1a02000 	.word	0xe1a02000
   14140:	e79f3003 	.word	0xe79f3003
   14144:	e7903003 	.word	0xe7903003
   14148:	e3530026 	.word	0xe3530026
   1414c:	1a000009 	.word	0x1a000009
   14150:	e1a00004 	.word	0xe1a00004
   14154:	e1a01006 	.word	0xe1a01006
   14158:	e3a070ee 	.word	0xe3a070ee
   1415c:	ef000000 	.word	0xef000000
   14160:	e3700a01 	.word	0xe3700a01
   14164:	9a000004 	.word	0x9a000004
   14168:	e59f3038 	.word	0xe59f3038
   1416c:	e2600000 	.word	0xe2600000
   14170:	e79f3003 	.word	0xe79f3003
   14174:	e7820003 	.word	0xe7820003
   14178:	e3e00000 	.word	0xe3e00000
   1417c:	e59d2004 	.word	0xe59d2004
   14180:	e5953000 	.word	0xe5953000
   14184:	e1520003 	.word	0xe1520003
   14188:	0a000000 	.word	0x0a000000
   1418c:	ebffefd7 	.word	0xebffefd7
   14190:	e28dd00c 	.word	0xe28dd00c
   14194:	e8bd80f0 	.word	0xe8bd80f0
   14198:	0005a4f8 	.word	0x0005a4f8
   1419c:	0000002c 	.word	0x0000002c
   141a0:	0005a4e0 	.word	0x0005a4e0
   141a4:	0005a4c0 	.word	0x0005a4c0
   141a8:	0005a490 	.word	0x0005a490

000141ac <__GI_sleep>:
   141ac:	e59f3138 	.word	0xe59f3138
   141b0:	e59f2138 	.word	0xe59f2138
   141b4:	e08f3003 	.word	0xe08f3003
   141b8:	e92d4070 	.word	0xe92d4070
   141bc:	e7936002 	.word	0xe7936002
   141c0:	e3a05000 	.word	0xe3a05000
   141c4:	e5963000 	.word	0xe5963000
   141c8:	e24dd028 	.word	0xe24dd028
   141cc:	e1500005 	.word	0xe1500005
   141d0:	e1a04000 	.word	0xe1a04000
   141d4:	e58d3024 	.word	0xe58d3024
   141d8:	e58d0000 	.word	0xe58d0000
   141dc:	e58d5004 	.word	0xe58d5004
   141e0:	1a000019 	.word	0x1a000019
   141e4:	eb0002b9 	.word	0xeb0002b9
   141e8:	e510340c 	.word	0xe510340c
   141ec:	e1a05000 	.word	0xe1a05000
   141f0:	e3c33046 	.word	0xe3c33046
   141f4:	e3530008 	.word	0xe3530008
   141f8:	1a000033 	.word	0x1a000033
   141fc:	e2406e49 	.word	0xe2406e49
   14200:	e3e03000 	.word	0xe3e03000
   14204:	e2866084 	.word	0xe2866084
   14208:	e5003270 	.word	0xe5003270
   1420c:	e515440c 	.word	0xe515440c
   14210:	e1a02006 	.word	0xe1a02006
   14214:	e3841010 	.word	0xe3841010
   14218:	e5923000 	.word	0xe5923000
   1421c:	e1530004 	.word	0xe1530004
   14220:	1a000005 	.word	0x1a000005
   14224:	e1a00004 	.word	0xe1a00004
   14228:	e3e03a0f 	.word	0xe3e03a0f
   1422c:	e1a0e00f 	.word	0xe1a0e00f
   14230:	e243f03f 	.word	0xe243f03f
   14234:	3afffff7 	.word	0x3afffff7
   14238:	e1a03004 	.word	0xe1a03004
   1423c:	e1530004 	.word	0xe1530004
   14240:	1afffff1 	.word	0x1afffff1
   14244:	e5150410 	.word	0xe5150410
   14248:	e1a00000 	.word	0xe1a00000
   1424c:	e3a03801 	.word	0xe3a03801
   14250:	e28d2010 	.word	0xe28d2010
   14254:	e1a01005 	.word	0xe1a01005
   14258:	e3a00011 	.word	0xe3a00011
   1425c:	e58d3008 	.word	0xe58d3008
   14260:	e58d500c 	.word	0xe58d500c
   14264:	eb00026c 	.word	0xeb00026c
   14268:	e59d3010 	.word	0xe59d3010
   1426c:	e3530001 	.word	0xe3530001
   14270:	1a000003 	.word	0x1a000003
   14274:	e28d2008 	.word	0xe28d2008
   14278:	e1a01002 	.word	0xe1a01002
   1427c:	e1a00005 	.word	0xe1a00005
   14280:	eb00038d 	.word	0xeb00038d
   14284:	e1a0100d 	.word	0xe1a0100d
   14288:	e1a0000d 	.word	0xe1a0000d
   1428c:	eb000343 	.word	0xeb000343
   14290:	e3500000 	.word	0xe3500000
   14294:	01a04000 	.word	0x01a04000
   14298:	0a000005 	.word	0x0a000005
   1429c:	e59d3000 	.word	0xe59d3000
   142a0:	e59f204c 	.word	0xe59f204c
   142a4:	e59d4004 	.word	0xe59d4004
   142a8:	e1540002 	.word	0xe1540002
   142ac:	d1a04003 	.word	0xd1a04003
   142b0:	c2834001 	.word	0xc2834001
   142b4:	e59d2008 	.word	0xe59d2008
   142b8:	e2122801 	.word	0xe2122801
   142bc:	1a000002 	.word	0x1a000002
   142c0:	e28d1008 	.word	0xe28d1008
   142c4:	e3a00002 	.word	0xe3a00002
   142c8:	eb00037b 	.word	0xeb00037b
   142cc:	e59d2024 	.word	0xe59d2024
   142d0:	e5963000 	.word	0xe5963000
   142d4:	e1a00004 	.word	0xe1a00004
   142d8:	e1520003 	.word	0xe1520003
   142dc:	0a000000 	.word	0x0a000000
   142e0:	ebffef82 	.word	0xebffef82
   142e4:	e28dd028 	.word	0xe28dd028
   142e8:	e8bd8070 	.word	0xe8bd8070
   142ec:	0005a3e4 	.word	0x0005a3e4
   142f0:	0000002c 	.word	0x0000002c
   142f4:	1dcd64ff 	.word	0x1dcd64ff
	...
   14300:	0005da68 	.word	0x0005da68

00014304 <__GI___close_nocancel>:
   14304:	e1a0c007 	.word	0xe1a0c007
   14308:	e3a07006 	.word	0xe3a07006
   1430c:	ef000000 	.word	0xef000000
   14310:	e1a0700c 	.word	0xe1a0700c
   14314:	31a0f00e 	.word	0x31a0f00e
   14318:	ea000235 	.word	0xea000235
   1431c:	e1a00000 	.word	0xe1a00000

00014320 <__GI___libc_close>:
   14320:	e51fc028 	.word	0xe51fc028
   14324:	e79fc00c 	.word	0xe79fc00c
   14328:	e33c0000 	.word	0xe33c0000
   1432c:	1a000006 	.word	0x1a000006
   14330:	e1a0c007 	.word	0xe1a0c007
   14334:	e3a07006 	.word	0xe3a07006
   14338:	ef000000 	.word	0xef000000
   1433c:	e1a0700c 	.word	0xe1a0700c
   14340:	e3700a01 	.word	0xe3700a01
   14344:	31a0f00e 	.word	0x31a0f00e
   14348:	ea000229 	.word	0xea000229
   1434c:	e92d4083 	.word	0xe92d4083
   14350:	eb000056 	.word	0xeb000056
   14354:	e1a0c000 	.word	0xe1a0c000
   14358:	e49d0008 	.word	0xe49d0008
   1435c:	e3a07006 	.word	0xe3a07006
   14360:	ef000000 	.word	0xef000000
   14364:	e1a07000 	.word	0xe1a07000
   14368:	e1a0000c 	.word	0xe1a0000c
   1436c:	eb00007e 	.word	0xeb00007e
   14370:	e1a00007 	.word	0xe1a00007
   14374:	e8bd4080 	.word	0xe8bd4080
   14378:	e3700a01 	.word	0xe3700a01
   1437c:	31a0f00e 	.word	0x31a0f00e
   14380:	ea00021b 	.word	0xea00021b
   14384:	e1a00000 	.word	0xe1a00000
   14388:	e1a00000 	.word	0xe1a00000
   1438c:	e1a00000 	.word	0xe1a00000
   14390:	0005d9d8 	.word	0x0005d9d8

00014394 <__GI___write_nocancel>:
   14394:	e1a0c007 	.word	0xe1a0c007
   14398:	e3a07004 	.word	0xe3a07004
   1439c:	ef000000 	.word	0xef000000
   143a0:	e1a0700c 	.word	0xe1a0700c
   143a4:	31a0f00e 	.word	0x31a0f00e
   143a8:	ea000211 	.word	0xea000211
   143ac:	e1a00000 	.word	0xe1a00000

000143b0 <__GI___libc_write>:
   143b0:	e51fc028 	.word	0xe51fc028
   143b4:	e79fc00c 	.word	0xe79fc00c
   143b8:	e33c0000 	.word	0xe33c0000
   143bc:	1a000006 	.word	0x1a000006
   143c0:	e1a0c007 	.word	0xe1a0c007
   143c4:	e3a07004 	.word	0xe3a07004
   143c8:	ef000000 	.word	0xef000000
   143cc:	e1a0700c 	.word	0xe1a0700c
   143d0:	e3700a01 	.word	0xe3700a01
   143d4:	31a0f00e 	.word	0x31a0f00e
   143d8:	ea000205 	.word	0xea000205
   143dc:	e92d408f 	.word	0xe92d408f
   143e0:	eb000032 	.word	0xeb000032
   143e4:	e1a0c000 	.word	0xe1a0c000
   143e8:	e8bd000f 	.word	0xe8bd000f
   143ec:	e3a07004 	.word	0xe3a07004
   143f0:	ef000000 	.word	0xef000000
   143f4:	e1a07000 	.word	0xe1a07000
   143f8:	e1a0000c 	.word	0xe1a0000c
   143fc:	eb00005a 	.word	0xeb00005a
   14400:	e1a00007 	.word	0xe1a00007
   14404:	e8bd4080 	.word	0xe8bd4080
   14408:	e3700a01 	.word	0xe3700a01
   1440c:	31a0f00e 	.word	0x31a0f00e
   14410:	ea0001f7 	.word	0xea0001f7
   14414:	e1a00000 	.word	0xe1a00000
   14418:	e1a00000 	.word	0xe1a00000
   1441c:	e1a00000 	.word	0xe1a00000
   14420:	0005d948 	.word	0x0005d948

00014424 <__GI___read_nocancel>:
   14424:	e1a0c007 	.word	0xe1a0c007
   14428:	e3a07003 	.word	0xe3a07003
   1442c:	ef000000 	.word	0xef000000
   14430:	e1a0700c 	.word	0xe1a0700c
   14434:	31a0f00e 	.word	0x31a0f00e
   14438:	ea0001ed 	.word	0xea0001ed
   1443c:	e1a00000 	.word	0xe1a00000

00014440 <__GI___libc_read>:
   14440:	e51fc028 	.word	0xe51fc028
   14444:	e79fc00c 	.word	0xe79fc00c
   14448:	e33c0000 	.word	0xe33c0000
   1444c:	1a000006 	.word	0x1a000006
   14450:	e1a0c007 	.word	0xe1a0c007
   14454:	e3a07003 	.word	0xe3a07003
   14458:	ef000000 	.word	0xef000000
   1445c:	e1a0700c 	.word	0xe1a0700c
   14460:	e3700a01 	.word	0xe3700a01
   14464:	31a0f00e 	.word	0x31a0f00e
   14468:	ea0001e1 	.word	0xea0001e1
   1446c:	e92d408f 	.word	0xe92d408f
   14470:	eb00000e 	.word	0xeb00000e
   14474:	e1a0c000 	.word	0xe1a0c000
   14478:	e8bd000f 	.word	0xe8bd000f
   1447c:	e3a07003 	.word	0xe3a07003
   14480:	ef000000 	.word	0xef000000
   14484:	e1a07000 	.word	0xe1a07000
   14488:	e1a0000c 	.word	0xe1a0000c
   1448c:	eb000036 	.word	0xeb000036
   14490:	e1a00007 	.word	0xe1a00007
   14494:	e8bd4080 	.word	0xe8bd4080
   14498:	e3700a01 	.word	0xe3700a01
   1449c:	31a0f00e 	.word	0x31a0f00e
   144a0:	ea0001d3 	.word	0xea0001d3
   144a4:	e1a00000 	.word	0xe1a00000
   144a8:	e1a00000 	.word	0xe1a00000
   144ac:	e1a00000 	.word	0xe1a00000

000144b0 <__libc_enable_asynccancel>:
   144b0:	e92d41f0 	.word	0xe92d41f0
   144b4:	eb000205 	.word	0xeb000205
   144b8:	e510640c 	.word	0xe510640c
   144bc:	e2408e49 	.word	0xe2408e49
   144c0:	e1a05000 	.word	0xe1a05000
   144c4:	e2888084 	.word	0xe2888084
   144c8:	e3867002 	.word	0xe3867002
   144cc:	e1570006 	.word	0xe1570006
   144d0:	0a000023 	.word	0x0a000023
   144d4:	e1a01007 	.word	0xe1a01007
   144d8:	e1a02008 	.word	0xe1a02008
   144dc:	e1a04006 	.word	0xe1a04006
   144e0:	e5923000 	.word	0xe5923000
   144e4:	e1530004 	.word	0xe1530004
   144e8:	1a000005 	.word	0x1a000005
   144ec:	e1a00004 	.word	0xe1a00004
   144f0:	e3e03a0f 	.word	0xe3e03a0f
   144f4:	e1a0e00f 	.word	0xe1a0e00f
   144f8:	e243f03f 	.word	0xe243f03f
   144fc:	3afffff7 	.word	0x3afffff7
   14500:	e1a03004 	.word	0xe1a03004
   14504:	e1530006 	.word	0xe1530006
   14508:	11a06003 	.word	0x11a06003
   1450c:	1affffed 	.word	0x1affffed
   14510:	e3c77044 	.word	0xe3c77044
   14514:	e357000a 	.word	0xe357000a
   14518:	1a000011 	.word	0x1a000011
   1451c:	e3e03000 	.word	0xe3e03000
   14520:	e5053270 	.word	0xe5053270
   14524:	e515440c 	.word	0xe515440c
   14528:	e1a02008 	.word	0xe1a02008
   1452c:	e3841010 	.word	0xe3841010
   14530:	e5923000 	.word	0xe5923000
   14534:	e1530004 	.word	0xe1530004
   14538:	1a000005 	.word	0x1a000005
   1453c:	e1a00004 	.word	0xe1a00004
   14540:	e3e03a0f 	.word	0xe3e03a0f
   14544:	e1a0e00f 	.word	0xe1a0e00f
   14548:	e243f03f 	.word	0xe243f03f
   1454c:	3afffff7 	.word	0x3afffff7
   14550:	e1a03004 	.word	0xe1a03004
   14554:	e1530004 	.word	0xe1530004
   14558:	1afffff1 	.word	0x1afffff1
   1455c:	e5150410 	.word	0xe5150410
   14560:	e1a00000 	.word	0xe1a00000
   14564:	e1a00006 	.word	0xe1a00006
   14568:	e8bd81f0 	.word	0xe8bd81f0

0001456c <__libc_disable_asynccancel>:
   1456c:	e3100002 	.word	0xe3100002
   14570:	112fff1e 	.word	0x112fff1e
   14574:	e92d41f0 	.word	0xe92d41f0
   14578:	eb0001d4 	.word	0xeb0001d4
   1457c:	e510440c 	.word	0xe510440c
   14580:	e2406e49 	.word	0xe2406e49
   14584:	e1a08000 	.word	0xe1a08000
   14588:	e2866084 	.word	0xe2866084
   1458c:	e3c45002 	.word	0xe3c45002
   14590:	e1a01005 	.word	0xe1a01005
   14594:	e1a02006 	.word	0xe1a02006
   14598:	e5923000 	.word	0xe5923000
   1459c:	e1530004 	.word	0xe1530004
   145a0:	1a000005 	.word	0x1a000005
   145a4:	e1a00004 	.word	0xe1a00004
   145a8:	e3e03a0f 	.word	0xe3e03a0f
   145ac:	e1a0e00f 	.word	0xe1a0e00f
   145b0:	e243f03f 	.word	0xe243f03f
   145b4:	3afffff7 	.word	0x3afffff7
   145b8:	e1a03004 	.word	0xe1a03004
   145bc:	e1530004 	.word	0xe1530004
   145c0:	11a04003 	.word	0x11a04003
   145c4:	1afffff0 	.word	0x1afffff0
   145c8:	e205300c 	.word	0xe205300c
   145cc:	e3530004 	.word	0xe3530004
   145d0:	1a000007 	.word	0x1a000007
   145d4:	e1a00006 	.word	0xe1a00006
   145d8:	e3a01080 	.word	0xe3a01080
   145dc:	e1a02005 	.word	0xe1a02005
   145e0:	e3a03000 	.word	0xe3a03000
   145e4:	e3a070f0 	.word	0xe3a070f0
   145e8:	ef000000 	.word	0xef000000
   145ec:	e518540c 	.word	0xe518540c
   145f0:	eafffff4 	.word	0xeafffff4
   145f4:	e8bd81f0 	.word	0xe8bd81f0
   145f8:	e92d4070 	.word	0xe92d4070
   145fc:	e1a05001 	.word	0xe1a05001
   14600:	e3a01001 	.word	0xe3a01001
   14604:	e1a04000 	.word	0xe1a04000
   14608:	eb0002f1 	.word	0xeb0002f1
   1460c:	e3700001 	.word	0xe3700001
   14610:	18bd8070 	.word	0x18bd8070
   14614:	e59f0014 	.word	0xe59f0014
   14618:	e1a01005 	.word	0xe1a01005
   1461c:	e08f0000 	.word	0xe08f0000
   14620:	eb001a4a 	.word	0xeb001a4a
   14624:	e1500004 	.word	0xe1500004
   14628:	08bd8070 	.word	0x08bd8070
   1462c:	ebfffbda 	.word	0xebfffbda
   14630:	0000a1ea 	.word	0x0000a1ea

00014634 <__pthread_mutex_lock>:
   14634:	e3a00000 	.word	0xe3a00000
   14638:	e12fff1e 	.word	0xe12fff1e

0001463c <__pthread_mutex_init>:
   1463c:	e3a00000 	.word	0xe3a00000
   14640:	e12fff1e 	.word	0xe12fff1e

00014644 <_pthread_cleanup_push_defer>:
   14644:	e8800006 	.word	0xe8800006
   14648:	e12fff1e 	.word	0xe12fff1e

0001464c <_pthread_cleanup_pop_restore>:
   1464c:	e3510000 	.word	0xe3510000
   14650:	012fff1e 	.word	0x012fff1e
   14654:	e5903000 	.word	0xe5903000
   14658:	e5900004 	.word	0xe5900004
   1465c:	e12fff13 	.word	0xe12fff13

00014660 <__GI___uClibc_init>:
   14660:	e92d407f 	.word	0xe92d407f
   14664:	e59f40d8 	.word	0xe59f40d8
   14668:	e59f30d8 	.word	0xe59f30d8
   1466c:	e08f4004 	.word	0xe08f4004
   14670:	e7943003 	.word	0xe7943003
   14674:	e5935000 	.word	0xe5935000
   14678:	e3550000 	.word	0xe3550000
   1467c:	1a00002e 	.word	0x1a00002e
   14680:	e3a02a01 	.word	0xe3a02a01
   14684:	e5832000 	.word	0xe5832000
   14688:	eb001afd 	.word	0xeb001afd
   1468c:	e59f00b8 	.word	0xe59f00b8
   14690:	e1a02005 	.word	0xe1a02005
   14694:	e1a01005 	.word	0xe1a01005
   14698:	e08f0000 	.word	0xe08f0000
   1469c:	eb001a2b 	.word	0xeb001a2b
   146a0:	e2506000 	.word	0xe2506000
   146a4:	ba000007 	.word	0xba000007
   146a8:	e3a02004 	.word	0xe3a02004
   146ac:	e08d1002 	.word	0xe08d1002
   146b0:	ebffff62 	.word	0xebffff62
   146b4:	e1a05000 	.word	0xe1a05000
   146b8:	e1a00006 	.word	0xe1a00006
   146bc:	ebffff17 	.word	0xebffff17
   146c0:	e3550004 	.word	0xe3550004
   146c4:	0a00000b 	.word	0x0a00000b
   146c8:	e59f3080 	.word	0xe59f3080
   146cc:	e3a01000 	.word	0xe3a01000
   146d0:	e28d0008 	.word	0xe28d0008
   146d4:	e58d3004 	.word	0xe58d3004
   146d8:	eb0001c9 	.word	0xeb0001c9
   146dc:	e3700001 	.word	0xe3700001
   146e0:	159d300c 	.word	0x159d300c
   146e4:	159d2008 	.word	0x159d2008
   146e8:	10233002 	.word	0x10233002
   146ec:	159d2004 	.word	0x159d2004
   146f0:	10233002 	.word	0x10233002
   146f4:	158d3004 	.word	0x158d3004
   146f8:	e59f2054 	.word	0xe59f2054
   146fc:	e59d3004 	.word	0xe59d3004
   14700:	e08f2002 	.word	0xe08f2002
   14704:	e5823000 	.word	0xe5823000
   14708:	e59f2048 	.word	0xe59f2048
   1470c:	e7942002 	.word	0xe7942002
   14710:	e5823000 	.word	0xe5823000
   14714:	e59f3040 	.word	0xe59f3040
   14718:	e08f3003 	.word	0xe08f3003
   1471c:	e3530000 	.word	0xe3530000
   14720:	0a000000 	.word	0x0a000000
   14724:	eb0006fd 	.word	0xeb0006fd
   14728:	e59f3030 	.word	0xe59f3030
   1472c:	e08f3003 	.word	0xe08f3003
   14730:	e3530000 	.word	0xe3530000
   14734:	0a000000 	.word	0x0a000000
   14738:	ebfff0e4 	.word	0xebfff0e4
   1473c:	e28dd010 	.word	0xe28dd010
   14740:	e8bd8070 	.word	0xe8bd8070
   14744:	00059f2c 	.word	0x00059f2c
   14748:	00000094 	.word	0x00000094
   1474c:	0000a178 	.word	0x0000a178
   14750:	ff0a0d00 	.word	0xff0a0d00
   14754:	0005c180 	.word	0x0005c180
   14758:	0000002c 	.word	0x0000002c
   1475c:	00001c00 	.word	0x00001c00
   14760:	ffffc39c 	.word	0xffffc39c

00014764 <__GI___uClibc_fini>:
   14764:	e59f306c 	.word	0xe59f306c
   14768:	e59f206c 	.word	0xe59f206c
   1476c:	e92d4070 	.word	0xe92d4070
   14770:	e59f5068 	.word	0xe59f5068
   14774:	e08f3003 	.word	0xe08f3003
   14778:	e08f2002 	.word	0xe08f2002
   1477c:	e0633002 	.word	0xe0633002
   14780:	e1a03143 	.word	0xe1a03143
   14784:	e08f5005 	.word	0xe08f5005
   14788:	e3530000 	.word	0xe3530000
   1478c:	e2434001 	.word	0xe2434001
   14790:	0a000003 	.word	0x0a000003
   14794:	e7953104 	.word	0xe7953104
   14798:	e12fff33 	.word	0xe12fff33
   1479c:	e1a03004 	.word	0xe1a03004
   147a0:	eafffff8 	.word	0xeafffff8
   147a4:	e59f3038 	.word	0xe59f3038
   147a8:	e08f3003 	.word	0xe08f3003
   147ac:	e5933004 	.word	0xe5933004
   147b0:	e3530000 	.word	0xe3530000
   147b4:	0a000000 	.word	0x0a000000
   147b8:	e12fff33 	.word	0xe12fff33
   147bc:	e59f3024 	.word	0xe59f3024
   147c0:	e08f3003 	.word	0xe08f3003
   147c4:	e5933008 	.word	0xe5933008
   147c8:	e3530000 	.word	0xe3530000
   147cc:	08bd8070 	.word	0x08bd8070
   147d0:	e8bd4070 	.word	0xe8bd4070
   147d4:	e12fff13 	.word	0xe12fff13
   147d8:	00059e14 	.word	0x00059e14
   147dc:	00059e14 	.word	0x00059e14
   147e0:	00059e04 	.word	0x00059e04
   147e4:	0005c0d8 	.word	0x0005c0d8
   147e8:	0005c0c0 	.word	0x0005c0c0

000147ec <__uClibc_main>:
   147ec:	e1a05003 	.word	0xe1a05003
   147f0:	e59f334c 	.word	0xe59f334c
   147f4:	e92d4080 	.word	0xe92d4080
   147f8:	e08f3003 	.word	0xe08f3003
   147fc:	e24ddf6a 	.word	0xe24ddf6a
   14800:	e58d3004 	.word	0xe58d3004
   14804:	e58d2008 	.word	0xe58d2008
   14808:	e59f3338 	.word	0xe59f3338
   1480c:	e59d2004 	.word	0xe59d2004
   14810:	e58d0010 	.word	0xe58d0010
   14814:	e58d100c 	.word	0xe58d100c
   14818:	e7923003 	.word	0xe7923003
   1481c:	e59d21b8 	.word	0xe59d21b8
   14820:	e59d0004 	.word	0xe59d0004
   14824:	e5832000 	.word	0xe5832000
   14828:	e59f331c 	.word	0xe59f331c
   1482c:	e59d21b4 	.word	0xe59d21b4
   14830:	e08f3003 	.word	0xe08f3003
   14834:	e5832008 	.word	0xe5832008
   14838:	e59d2008 	.word	0xe59d2008
   1483c:	e2813001 	.word	0xe2813001
   14840:	e1a03103 	.word	0xe1a03103
   14844:	e0821003 	.word	0xe0821003
   14848:	e59f2300 	.word	0xe59f2300
   1484c:	e7902002 	.word	0xe7902002
   14850:	e59d0008 	.word	0xe59d0008
   14854:	e5821000 	.word	0xe5821000
   14858:	e5900000 	.word	0xe5900000
   1485c:	e1510000 	.word	0xe1510000
   14860:	059d1008 	.word	0x059d1008
   14864:	02433004 	.word	0x02433004
   14868:	00813003 	.word	0x00813003
   1486c:	05823000 	.word	0x05823000
   14870:	e3a01000 	.word	0xe3a01000
   14874:	e3a02078 	.word	0xe3a02078
   14878:	e28d0018 	.word	0xe28d0018
   1487c:	ebfff617 	.word	0xebfff617
   14880:	e59f32c8 	.word	0xe59f32c8
   14884:	e59d2004 	.word	0xe59d2004
   14888:	e7923003 	.word	0xe7923003
   1488c:	e5934000 	.word	0xe5934000
   14890:	e5943000 	.word	0xe5943000
   14894:	e2844004 	.word	0xe2844004
   14898:	e3530000 	.word	0xe3530000
   1489c:	1afffffb 	.word	0x1afffffb
   148a0:	e28d6018 	.word	0xe28d6018
   148a4:	e3a07008 	.word	0xe3a07008
   148a8:	e5940000 	.word	0xe5940000
   148ac:	e3500000 	.word	0xe3500000
   148b0:	0a000007 	.word	0x0a000007
   148b4:	e350000e 	.word	0xe350000e
   148b8:	8a000003 	.word	0x8a000003
   148bc:	e1a02007 	.word	0xe1a02007
   148c0:	e1a01004 	.word	0xe1a01004
   148c4:	e0860180 	.word	0xe0860180
   148c8:	ebfff600 	.word	0xebfff600
   148cc:	e2844008 	.word	0xe2844008
   148d0:	eafffff4 	.word	0xeafffff4
   148d4:	e28d0018 	.word	0xe28d0018
   148d8:	eb001a89 	.word	0xeb001a89
   148dc:	ebffff5f 	.word	0xebffff5f
   148e0:	e59f226c 	.word	0xe59f226c
   148e4:	e59d1004 	.word	0xe59d1004
   148e8:	e59d304c 	.word	0xe59d304c
   148ec:	e7912002 	.word	0xe7912002
   148f0:	e3530000 	.word	0xe3530000
   148f4:	03a03a01 	.word	0x03a03a01
   148f8:	e5823000 	.word	0xe5823000
   148fc:	e59d3074 	.word	0xe59d3074
   14900:	e3730001 	.word	0xe3730001
   14904:	0a000003 	.word	0x0a000003
   14908:	e59d3074 	.word	0xe59d3074
   1490c:	e3730001 	.word	0xe3730001
   14910:	1a00000b 	.word	0x1a00000b
   14914:	ea000011 	.word	0xea000011
   14918:	eb000148 	.word	0xeb000148
   1491c:	e1a04000 	.word	0xe1a04000
   14920:	eb000116 	.word	0xeb000116
   14924:	e1540000 	.word	0xe1540000
   14928:	1a00001d 	.word	0x1a00001d
   1492c:	eb000117 	.word	0xeb000117
   14930:	e1a04000 	.word	0xe1a04000
   14934:	eb00010d 	.word	0xeb00010d
   14938:	e1540000 	.word	0xe1540000
   1493c:	1a000018 	.word	0x1a000018
   14940:	eafffff0 	.word	0xeafffff0
   14944:	e59d207c 	.word	0xe59d207c
   14948:	e1530002 	.word	0xe1530002
   1494c:	1a000014 	.word	0x1a000014
   14950:	e59d308c 	.word	0xe59d308c
   14954:	e59d2084 	.word	0xe59d2084
   14958:	e1520003 	.word	0xe1520003
   1495c:	1a000010 	.word	0x1a000010
   14960:	e59d3008 	.word	0xe59d3008
   14964:	e59f71ec 	.word	0xe59f71ec
   14968:	e5932000 	.word	0xe5932000
   1496c:	e59f31e8 	.word	0xe59f31e8
   14970:	e59f41e8 	.word	0xe59f41e8
   14974:	e08f3003 	.word	0xe08f3003
   14978:	e5832000 	.word	0xe5832000
   1497c:	e59f31e0 	.word	0xe59f31e0
   14980:	e59d21b0 	.word	0xe59d21b0
   14984:	e08f7007 	.word	0xe08f7007
   14988:	e08f4004 	.word	0xe08f4004
   1498c:	e08f3003 	.word	0xe08f3003
   14990:	e0674004 	.word	0xe0674004
   14994:	e5832004 	.word	0xe5832004
   14998:	e3a06000 	.word	0xe3a06000
   1499c:	e1a04144 	.word	0xe1a04144
   149a0:	ea00000a 	.word	0xea00000a
   149a4:	e59f41bc 	.word	0xe59f41bc
   149a8:	e3a01902 	.word	0xe3a01902
   149ac:	e3a00000 	.word	0xe3a00000
   149b0:	ebffff10 	.word	0xebffff10
   149b4:	e1a01004 	.word	0xe1a01004
   149b8:	e3a00001 	.word	0xe3a00001
   149bc:	ebffff0d 	.word	0xebffff0d
   149c0:	e1a01004 	.word	0xe1a01004
   149c4:	e3a00002 	.word	0xe3a00002
   149c8:	ebffff0a 	.word	0xebffff0a
   149cc:	eaffffe3 	.word	0xeaffffe3
   149d0:	e1560004 	.word	0xe1560004
   149d4:	2a000003 	.word	0x2a000003
   149d8:	e7973106 	.word	0xe7973106
   149dc:	e12fff33 	.word	0xe12fff33
   149e0:	e2866001 	.word	0xe2866001
   149e4:	eafffff9 	.word	0xeafffff9
   149e8:	e3550000 	.word	0xe3550000
   149ec:	1a000007 	.word	0x1a000007
   149f0:	e59f6174 	.word	0xe59f6174
   149f4:	e59f4174 	.word	0xe59f4174
   149f8:	e08f6006 	.word	0xe08f6006
   149fc:	e08f4004 	.word	0xe08f4004
   14a00:	e0664004 	.word	0xe0664004
   14a04:	e3a05000 	.word	0xe3a05000
   14a08:	e1a04144 	.word	0xe1a04144
   14a0c:	ea000001 	.word	0xea000001
   14a10:	e12fff35 	.word	0xe12fff35
   14a14:	eafffff5 	.word	0xeafffff5
   14a18:	e1550004 	.word	0xe1550004
   14a1c:	2a000003 	.word	0x2a000003
   14a20:	e7963105 	.word	0xe7963105
   14a24:	e12fff33 	.word	0xe12fff33
   14a28:	e2855001 	.word	0xe2855001
   14a2c:	eafffff9 	.word	0xeafffff9
   14a30:	e59f313c 	.word	0xe59f313c
   14a34:	e08f3003 	.word	0xe08f3003
   14a38:	e3530000 	.word	0xe3530000
   14a3c:	0a000002 	.word	0x0a000002
   14a40:	e1a00000 	.word	0xe1a00000
   14a44:	e3a03000 	.word	0xe3a03000
   14a48:	e5803000 	.word	0xe5803000
   14a4c:	e59f3124 	.word	0xe59f3124
   14a50:	e59d2004 	.word	0xe59d2004
   14a54:	e7923003 	.word	0xe7923003
   14a58:	e58d3014 	.word	0xe58d3014
   14a5c:	e3530000 	.word	0xe3530000
   14a60:	0a000002 	.word	0x0a000002
   14a64:	e1a00000 	.word	0xe1a00000
   14a68:	e3a03000 	.word	0xe3a03000
   14a6c:	e5803000 	.word	0xe5803000
   14a70:	e28d0090 	.word	0xe28d0090
   14a74:	eb00008a 	.word	0xeb00008a
   14a78:	e3500000 	.word	0xe3500000
   14a7c:	1a00000f 	.word	0x1a00000f
   14a80:	eb000092 	.word	0xeb000092
   14a84:	e5103410 	.word	0xe5103410
   14a88:	e59d2004 	.word	0xe59d2004
   14a8c:	e58d3198 	.word	0xe58d3198
   14a90:	e5103414 	.word	0xe5103414
   14a94:	e59d1008 	.word	0xe59d1008
   14a98:	e58d319c 	.word	0xe58d319c
   14a9c:	e28d3090 	.word	0xe28d3090
   14aa0:	e5003410 	.word	0xe5003410
   14aa4:	e59f30a4 	.word	0xe59f30a4
   14aa8:	e59d000c 	.word	0xe59d000c
   14aac:	e7923003 	.word	0xe7923003
   14ab0:	e5932000 	.word	0xe5932000
   14ab4:	e59d3010 	.word	0xe59d3010
   14ab8:	e12fff33 	.word	0xe12fff33
   14abc:	ea00001f 	.word	0xea00001f
   14ac0:	e1a00000 	.word	0xe1a00000
   14ac4:	e59f30b0 	.word	0xe59f30b0
   14ac8:	e59d2004 	.word	0xe59d2004
   14acc:	e7925003 	.word	0xe7925003
   14ad0:	e5954000 	.word	0xe5954000
   14ad4:	e1a02005 	.word	0xe1a02005
   14ad8:	e2441001 	.word	0xe2441001
   14adc:	e5923000 	.word	0xe5923000
   14ae0:	e1530004 	.word	0xe1530004
   14ae4:	1a000005 	.word	0x1a000005
   14ae8:	e1a00004 	.word	0xe1a00004
   14aec:	e3e03a0f 	.word	0xe3e03a0f
   14af0:	e1a0e00f 	.word	0xe1a0e00f
   14af4:	e243f03f 	.word	0xe243f03f
   14af8:	3afffff7 	.word	0x3afffff7
   14afc:	e1a03004 	.word	0xe1a03004
   14b00:	e1530004 	.word	0xe1530004
   14b04:	1afffff1 	.word	0x1afffff1
   14b08:	e3530001 	.word	0xe3530001
   14b0c:	0a00000a 	.word	0x0a00000a
   14b10:	e3a00000 	.word	0xe3a00000
   14b14:	e3a07001 	.word	0xe3a07001
   14b18:	ef000000 	.word	0xef000000
   14b1c:	e3700a01 	.word	0xe3700a01
   14b20:	e1a03000 	.word	0xe1a03000
   14b24:	9a000004 	.word	0x9a000004
   14b28:	e59f2050 	.word	0xe59f2050
   14b2c:	eb000067 	.word	0xeb000067
   14b30:	e2633000 	.word	0xe2633000
   14b34:	e79f2002 	.word	0xe79f2002
   14b38:	e7803002 	.word	0xe7803002
   14b3c:	e3a00000 	.word	0xe3a00000
   14b40:	eb0018b4 	.word	0xeb0018b4
   14b44:	00059da0 	.word	0x00059da0
   14b48:	00000028 	.word	0x00000028
   14b4c:	0005c050 	.word	0x0005c050
   14b50:	00000040 	.word	0x00000040
   14b54:	00000094 	.word	0x00000094
   14b58:	00059c00 	.word	0x00059c00
   14b5c:	00059e30 	.word	0x00059e30
   14b60:	00059bfc 	.word	0x00059bfc
   14b64:	0005bef4 	.word	0x0005bef4
   14b68:	00008002 	.word	0x00008002
   14b6c:	00059b8c 	.word	0x00059b8c
   14b70:	00059b8c 	.word	0x00059b8c
   14b74:	fffeb5c4 	.word	0xfffeb5c4
   14b78:	00000080 	.word	0x00000080
   14b7c:	00000078 	.word	0x00000078
   14b80:	00059acc 	.word	0x00059acc

00014b84 <__GI_mmap>:
   14b84:	e92d40b0 	.word	0xe92d40b0
   14b88:	e59d5014 	.word	0xe59d5014
   14b8c:	e1b0ca05 	.word	0xe1b0ca05
   14b90:	0a000006 	.word	0x0a000006
   14b94:	e59f3050 	.word	0xe59f3050
   14b98:	eb00004c 	.word	0xeb00004c
   14b9c:	e3a02016 	.word	0xe3a02016
   14ba0:	e79f3003 	.word	0xe79f3003
   14ba4:	e7802003 	.word	0xe7802003
   14ba8:	e3e00000 	.word	0xe3e00000
   14bac:	e8bd80b0 	.word	0xe8bd80b0
   14bb0:	e59d4010 	.word	0xe59d4010
   14bb4:	e1a05625 	.word	0xe1a05625
   14bb8:	e3a070c0 	.word	0xe3a070c0
   14bbc:	ef000000 	.word	0xef000000
   14bc0:	e3700a01 	.word	0xe3700a01
   14bc4:	e1a03000 	.word	0xe1a03000
   14bc8:	9a000005 	.word	0x9a000005
   14bcc:	e59f201c 	.word	0xe59f201c
   14bd0:	eb00003e 	.word	0xeb00003e
   14bd4:	e2633000 	.word	0xe2633000
   14bd8:	e79f2002 	.word	0xe79f2002
   14bdc:	e7803002 	.word	0xe7803002
   14be0:	e3e03000 	.word	0xe3e03000
   14be4:	e1a00003 	.word	0xe1a00003
   14be8:	e8bd80b0 	.word	0xe8bd80b0
   14bec:	00059a60 	.word	0x00059a60
   14bf0:	00059a28 	.word	0x00059a28

00014bf4 <__syscall_error>:
   14bf4:	e59f301c 	.word	0xe59f301c
   14bf8:	e52de004 	.word	0xe52de004
   14bfc:	e79f3003 	.word	0xe79f3003
   14c00:	e1a02000 	.word	0xe1a02000
   14c04:	e2622000 	.word	0xe2622000
   14c08:	eb000030 	.word	0xeb000030
   14c0c:	e7802003 	.word	0xe7802003
   14c10:	e3e00000 	.word	0xe3e00000
   14c14:	e49df004 	.word	0xe49df004
   14c18:	00059a04 	.word	0x00059a04

00014c1c <__libc_sigaction>:
   14c1c:	e92d40f0 	.word	0xe92d40f0
   14c20:	e59f5070 	.word	0xe59f5070
   14c24:	e1a06000 	.word	0xe1a06000
   14c28:	e2510000 	.word	0xe2510000
   14c2c:	e08f5005 	.word	0xe08f5005
   14c30:	e24dd01c 	.word	0xe24dd01c
   14c34:	e1a07002 	.word	0xe1a07002
   14c38:	0a00000f 	.word	0x0a00000f
   14c3c:	e5903004 	.word	0xe5903004
   14c40:	e3130301 	.word	0xe3130301
   14c44:	1a00000c 	.word	0x1a00000c
   14c48:	e28d4004 	.word	0xe28d4004
   14c4c:	e3a02014 	.word	0xe3a02014
   14c50:	e1a00004 	.word	0xe1a00004
   14c54:	ebfff51d 	.word	0xebfff51d
   14c58:	e59d3008 	.word	0xe59d3008
   14c5c:	e59f2038 	.word	0xe59f2038
   14c60:	e3130004 	.word	0xe3130004
   14c64:	159f2034 	.word	0x159f2034
   14c68:	e7952002 	.word	0xe7952002
   14c6c:	e3833301 	.word	0xe3833301
   14c70:	e1a00004 	.word	0xe1a00004
   14c74:	e58d200c 	.word	0xe58d200c
   14c78:	e58d3008 	.word	0xe58d3008
   14c7c:	e1a01000 	.word	0xe1a01000
   14c80:	e3a03008 	.word	0xe3a03008
   14c84:	e1a02007 	.word	0xe1a02007
   14c88:	e1a00006 	.word	0xe1a00006
   14c8c:	eb000187 	.word	0xeb000187
   14c90:	e28dd01c 	.word	0xe28dd01c
   14c94:	e8bd80f0 	.word	0xe8bd80f0
   14c98:	0005996c 	.word	0x0005996c
   14c9c:	0000007c 	.word	0x0000007c
   14ca0:	00000088 	.word	0x00000088

00014ca4 <_setjmp>:
   14ca4:	e3a01000 	.word	0xe3a01000
   14ca8:	ea0019b7 	.word	0xea0019b7
   14cac:	e1a00000 	.word	0xe1a00000

00014cb0 <__default_sa_restorer>:
   14cb0:	e3a07077 	.word	0xe3a07077
   14cb4:	ef000000 	.word	0xef000000
   14cb8:	e1a00000 	.word	0xe1a00000

00014cbc <__default_rt_sa_restorer>:
   14cbc:	e3a070ad 	.word	0xe3a070ad
   14cc0:	ef000000 	.word	0xef000000
	...

00014cd0 <__aeabi_read_tp>:
   14cd0:	e3e00a0f 	.word	0xe3e00a0f
   14cd4:	e240f01f 	.word	0xe240f01f
   14cd8:	e1a00000 	.word	0xe1a00000
   14cdc:	e1a00000 	.word	0xe1a00000

00014ce0 <__GI__exit>:
   14ce0:	e59f505c 	.word	0xe59f505c
   14ce4:	e59f405c 	.word	0xe59f405c
   14ce8:	e1a02000 	.word	0xe1a02000
   14cec:	e92d4080 	.word	0xe92d4080
   14cf0:	e1a00002 	.word	0xe1a00002
   14cf4:	e3a070f8 	.word	0xe3a070f8
   14cf8:	ef000000 	.word	0xef000000
   14cfc:	e3700a01 	.word	0xe3700a01
   14d00:	e1a03000 	.word	0xe1a03000
   14d04:	9a000003 	.word	0x9a000003
   14d08:	e79f1005 	.word	0xe79f1005
   14d0c:	ebffffef 	.word	0xebffffef
   14d10:	e2633000 	.word	0xe2633000
   14d14:	e7803001 	.word	0xe7803001
   14d18:	e1a00002 	.word	0xe1a00002
   14d1c:	e3a07001 	.word	0xe3a07001
   14d20:	ef000000 	.word	0xef000000
   14d24:	e3700a01 	.word	0xe3700a01
   14d28:	e1a03000 	.word	0xe1a03000
   14d2c:	9affffef 	.word	0x9affffef
   14d30:	e79f1004 	.word	0xe79f1004
   14d34:	ebffffe5 	.word	0xebffffe5
   14d38:	e2633000 	.word	0xe2633000
   14d3c:	e7803001 	.word	0xe7803001
   14d40:	eaffffea 	.word	0xeaffffea
   14d44:	000598f8 	.word	0x000598f8
   14d48:	000598d0 	.word	0x000598d0

00014d4c <__GI_getdtablesize>:
   14d4c:	e92d4007 	.word	0xe92d4007
   14d50:	e3a00007 	.word	0xe3a00007
   14d54:	e1a0100d 	.word	0xe1a0100d
   14d58:	eb00001a 	.word	0xeb00001a
   14d5c:	e3500000 	.word	0xe3500000
   14d60:	a59d0000 	.word	0xa59d0000
   14d64:	b3a00c01 	.word	0xb3a00c01
   14d68:	e28dd00c 	.word	0xe28dd00c
   14d6c:	e49df004 	.word	0xe49df004

00014d70 <__GI_getegid>:
   14d70:	e92d4080 	.word	0xe92d4080
   14d74:	e3a070ca 	.word	0xe3a070ca
   14d78:	ef000000 	.word	0xef000000
   14d7c:	e8bd8080 	.word	0xe8bd8080

00014d80 <__GI_geteuid>:
   14d80:	e92d4080 	.word	0xe92d4080
   14d84:	e3a070c9 	.word	0xe3a070c9
   14d88:	ef000000 	.word	0xef000000
   14d8c:	e8bd8080 	.word	0xe8bd8080

00014d90 <__GI_getgid>:
   14d90:	e92d4080 	.word	0xe92d4080
   14d94:	e3a070c8 	.word	0xe3a070c8
   14d98:	ef000000 	.word	0xef000000
   14d9c:	e8bd8080 	.word	0xe8bd8080

00014da0 <__GI_getpagesize>:
   14da0:	e59f3018 	.word	0xe59f3018
   14da4:	e59f2018 	.word	0xe59f2018
   14da8:	e08f3003 	.word	0xe08f3003
   14dac:	e7933002 	.word	0xe7933002
   14db0:	e5930000 	.word	0xe5930000
   14db4:	e3500000 	.word	0xe3500000
   14db8:	03a00a01 	.word	0x03a00a01
   14dbc:	e12fff1e 	.word	0xe12fff1e
   14dc0:	000597f0 	.word	0x000597f0
   14dc4:	00000094 	.word	0x00000094

00014dc8 <__GI_getrlimit>:
   14dc8:	e92d4080 	.word	0xe92d4080
   14dcc:	e3a070bf 	.word	0xe3a070bf
   14dd0:	ef000000 	.word	0xef000000
   14dd4:	e3700a01 	.word	0xe3700a01
   14dd8:	e1a03000 	.word	0xe1a03000
   14ddc:	9a000005 	.word	0x9a000005
   14de0:	e59f2018 	.word	0xe59f2018
   14de4:	ebffffb9 	.word	0xebffffb9
   14de8:	e2633000 	.word	0xe2633000
   14dec:	e79f2002 	.word	0xe79f2002
   14df0:	e7803002 	.word	0xe7803002
   14df4:	e3e03000 	.word	0xe3e03000
   14df8:	e1a00003 	.word	0xe1a00003
   14dfc:	e8bd8080 	.word	0xe8bd8080
   14e00:	00059814 	.word	0x00059814

00014e04 <__GI_gettimeofday>:
   14e04:	e92d4080 	.word	0xe92d4080
   14e08:	e3a0704e 	.word	0xe3a0704e
   14e0c:	ef000000 	.word	0xef000000
   14e10:	e3700a01 	.word	0xe3700a01
   14e14:	e1a03000 	.word	0xe1a03000
   14e18:	9a000005 	.word	0x9a000005
   14e1c:	e59f2018 	.word	0xe59f2018
   14e20:	ebffffaa 	.word	0xebffffaa
   14e24:	e2633000 	.word	0xe2633000
   14e28:	e79f2002 	.word	0xe79f2002
   14e2c:	e7803002 	.word	0xe7803002
   14e30:	e3e03000 	.word	0xe3e03000
   14e34:	e1a00003 	.word	0xe1a00003
   14e38:	e8bd8080 	.word	0xe8bd8080
   14e3c:	000597d8 	.word	0x000597d8

00014e40 <__GI_getuid>:
   14e40:	e92d4080 	.word	0xe92d4080
   14e44:	e3a070c7 	.word	0xe3a070c7
   14e48:	ef000000 	.word	0xef000000
   14e4c:	e8bd8080 	.word	0xe8bd8080

00014e50 <__GI_ioctl>:
   14e50:	e92d000e 	.word	0xe92d000e
   14e54:	e92d40f3 	.word	0xe92d40f3
   14e58:	e59d5020 	.word	0xe59d5020
   14e5c:	e28d3020 	.word	0xe28d3020
   14e60:	e58d3004 	.word	0xe58d3004
   14e64:	e59f30ac 	.word	0xe59f30ac
   14e68:	e08f3003 	.word	0xe08f3003
   14e6c:	e5933000 	.word	0xe5933000
   14e70:	e3530000 	.word	0xe3530000
   14e74:	1a00000e 	.word	0x1a00000e
   14e78:	e59d101c 	.word	0xe59d101c
   14e7c:	e1a02005 	.word	0xe1a02005
   14e80:	e3a07036 	.word	0xe3a07036
   14e84:	ef000000 	.word	0xef000000
   14e88:	e3700a01 	.word	0xe3700a01
   14e8c:	e1a03000 	.word	0xe1a03000
   14e90:	9a000005 	.word	0x9a000005
   14e94:	e59f2080 	.word	0xe59f2080
   14e98:	ebffff8c 	.word	0xebffff8c
   14e9c:	e2633000 	.word	0xe2633000
   14ea0:	e79f2002 	.word	0xe79f2002
   14ea4:	e7803002 	.word	0xe7803002
   14ea8:	e3e03000 	.word	0xe3e03000
   14eac:	e1a04003 	.word	0xe1a04003
   14eb0:	ea000013 	.word	0xea000013
   14eb4:	e1a04000 	.word	0xe1a04000
   14eb8:	ebfffd7c 	.word	0xebfffd7c
   14ebc:	e3a07036 	.word	0xe3a07036
   14ec0:	e59d101c 	.word	0xe59d101c
   14ec4:	e1a02005 	.word	0xe1a02005
   14ec8:	e1a06000 	.word	0xe1a06000
   14ecc:	e1a00004 	.word	0xe1a00004
   14ed0:	ef000000 	.word	0xef000000
   14ed4:	e3700a01 	.word	0xe3700a01
   14ed8:	e1a03000 	.word	0xe1a03000
   14edc:	9a000005 	.word	0x9a000005
   14ee0:	e59f2038 	.word	0xe59f2038
   14ee4:	ebffff79 	.word	0xebffff79
   14ee8:	e2633000 	.word	0xe2633000
   14eec:	e79f2002 	.word	0xe79f2002
   14ef0:	e7803002 	.word	0xe7803002
   14ef4:	e3e03000 	.word	0xe3e03000
   14ef8:	e1a00006 	.word	0xe1a00006
   14efc:	e1a04003 	.word	0xe1a04003
   14f00:	ebfffd99 	.word	0xebfffd99
   14f04:	e1a00004 	.word	0xe1a00004
   14f08:	e28dd008 	.word	0xe28dd008
   14f0c:	e8bd40f0 	.word	0xe8bd40f0
   14f10:	e28dd00c 	.word	0xe28dd00c
   14f14:	e12fff1e 	.word	0xe12fff1e
   14f18:	0005cf24 	.word	0x0005cf24
   14f1c:	00059760 	.word	0x00059760
   14f20:	00059714 	.word	0x00059714

00014f24 <__GI_mremap>:
   14f24:	e92d4090 	.word	0xe92d4090
   14f28:	e59d400c 	.word	0xe59d400c
   14f2c:	e3a070a3 	.word	0xe3a070a3
   14f30:	ef000000 	.word	0xef000000
   14f34:	e3700a01 	.word	0xe3700a01
   14f38:	e1a03000 	.word	0xe1a03000
   14f3c:	9a000005 	.word	0x9a000005
   14f40:	e59f2018 	.word	0xe59f2018
   14f44:	ebffff61 	.word	0xebffff61
   14f48:	e2633000 	.word	0xe2633000
   14f4c:	e79f2002 	.word	0xe79f2002
   14f50:	e7803002 	.word	0xe7803002
   14f54:	e3e03000 	.word	0xe3e03000
   14f58:	e1a00003 	.word	0xe1a00003
   14f5c:	e8bd8090 	.word	0xe8bd8090
   14f60:	000596b4 	.word	0x000596b4

00014f64 <__GI_munmap>:
   14f64:	e92d4080 	.word	0xe92d4080
   14f68:	e3a0705b 	.word	0xe3a0705b
   14f6c:	ef000000 	.word	0xef000000
   14f70:	e3700a01 	.word	0xe3700a01
   14f74:	e1a03000 	.word	0xe1a03000
   14f78:	9a000005 	.word	0x9a000005
   14f7c:	e59f2018 	.word	0xe59f2018
   14f80:	ebffff52 	.word	0xebffff52
   14f84:	e2633000 	.word	0xe2633000
   14f88:	e79f2002 	.word	0xe79f2002
   14f8c:	e7803002 	.word	0xe7803002
   14f90:	e3e03000 	.word	0xe3e03000
   14f94:	e1a00003 	.word	0xe1a00003
   14f98:	e8bd8080 	.word	0xe8bd8080
   14f9c:	00059678 	.word	0x00059678

00014fa0 <__libc_nanosleep>:
   14fa0:	e59f309c 	.word	0xe59f309c
   14fa4:	e92d41f0 	.word	0xe92d41f0
   14fa8:	e08f3003 	.word	0xe08f3003
   14fac:	e5933000 	.word	0xe5933000
   14fb0:	e3530000 	.word	0xe3530000
   14fb4:	1a00000c 	.word	0x1a00000c
   14fb8:	e3a070a2 	.word	0xe3a070a2
   14fbc:	ef000000 	.word	0xef000000
   14fc0:	e3700a01 	.word	0xe3700a01
   14fc4:	e1a03000 	.word	0xe1a03000
   14fc8:	9a000005 	.word	0x9a000005
   14fcc:	e59f2074 	.word	0xe59f2074
   14fd0:	ebffff3e 	.word	0xebffff3e
   14fd4:	e2633000 	.word	0xe2633000
   14fd8:	e79f2002 	.word	0xe79f2002
   14fdc:	e7803002 	.word	0xe7803002
   14fe0:	e3e03000 	.word	0xe3e03000
   14fe4:	e1a04003 	.word	0xe1a04003
   14fe8:	ea000013 	.word	0xea000013
   14fec:	e1a05000 	.word	0xe1a05000
   14ff0:	e1a04001 	.word	0xe1a04001
   14ff4:	ebfffd2d 	.word	0xebfffd2d
   14ff8:	e3a070a2 	.word	0xe3a070a2
   14ffc:	e1a01004 	.word	0xe1a01004
   15000:	e1a06000 	.word	0xe1a06000
   15004:	e1a00005 	.word	0xe1a00005
   15008:	ef000000 	.word	0xef000000
   1500c:	e3700a01 	.word	0xe3700a01
   15010:	e1a03000 	.word	0xe1a03000
   15014:	9a000005 	.word	0x9a000005
   15018:	e59f202c 	.word	0xe59f202c
   1501c:	ebffff2b 	.word	0xebffff2b
   15020:	e2633000 	.word	0xe2633000
   15024:	e79f2002 	.word	0xe79f2002
   15028:	e7803002 	.word	0xe7803002
   1502c:	e3e03000 	.word	0xe3e03000
   15030:	e1a00006 	.word	0xe1a00006
   15034:	e1a04003 	.word	0xe1a04003
   15038:	ebfffd4b 	.word	0xebfffd4b
   1503c:	e1a00004 	.word	0xe1a00004
   15040:	e8bd81f0 	.word	0xe8bd81f0
   15044:	0005cde4 	.word	0x0005cde4
   15048:	00059628 	.word	0x00059628
   1504c:	000595dc 	.word	0x000595dc

00015050 <__GI_sbrk>:
   15050:	e59f3058 	.word	0xe59f3058
   15054:	e92d4070 	.word	0xe92d4070
   15058:	e1a05000 	.word	0xe1a05000
   1505c:	e79f0003 	.word	0xe79f0003
   15060:	e3500000 	.word	0xe3500000
   15064:	0a000004 	.word	0x0a000004
   15068:	e3550000 	.word	0xe3550000
   1506c:	1a000007 	.word	0x1a000007
   15070:	e59f303c 	.word	0xe59f303c
   15074:	e79f0003 	.word	0xe79f0003
   15078:	e8bd8070 	.word	0xe8bd8070
   1507c:	eb0018ae 	.word	0xeb0018ae
   15080:	e3500000 	.word	0xe3500000
   15084:	aafffff7 	.word	0xaafffff7
   15088:	e3e00000 	.word	0xe3e00000
   1508c:	e8bd8070 	.word	0xe8bd8070
   15090:	e59f3020 	.word	0xe59f3020
   15094:	e79f4003 	.word	0xe79f4003
   15098:	e0840005 	.word	0xe0840005
   1509c:	eb0018a6 	.word	0xeb0018a6
   150a0:	e3500000 	.word	0xe3500000
   150a4:	bafffff7 	.word	0xbafffff7
   150a8:	e1a00004 	.word	0xe1a00004
   150ac:	e8bd8070 	.word	0xe8bd8070
   150b0:	0005bdf8 	.word	0x0005bdf8
   150b4:	0005bde0 	.word	0x0005bde0
   150b8:	0005bdc0 	.word	0x0005bdc0

000150bc <__GI_sigprocmask>:
   150bc:	e92d4083 	.word	0xe92d4083
   150c0:	e3510000 	.word	0xe3510000
   150c4:	e1a0c000 	.word	0xe1a0c000
   150c8:	0a00000d 	.word	0x0a00000d
   150cc:	e5913000 	.word	0xe5913000
   150d0:	e3530000 	.word	0xe3530000
   150d4:	ba000002 	.word	0xba000002
   150d8:	e5913004 	.word	0xe5913004
   150dc:	e3130001 	.word	0xe3130001
   150e0:	0a000007 	.word	0x0a000007
   150e4:	e8910003 	.word	0xe8910003
   150e8:	e88d0003 	.word	0xe88d0003
   150ec:	e3c01102 	.word	0xe3c01102
   150f0:	e58d1000 	.word	0xe58d1000
   150f4:	e59d1004 	.word	0xe59d1004
   150f8:	e3c11001 	.word	0xe3c11001
   150fc:	e58d1004 	.word	0xe58d1004
   15100:	e1a0100d 	.word	0xe1a0100d
   15104:	e1a0000c 	.word	0xe1a0000c
   15108:	e3a03008 	.word	0xe3a03008
   1510c:	e3a070af 	.word	0xe3a070af
   15110:	ef000000 	.word	0xef000000
   15114:	e3700a01 	.word	0xe3700a01
   15118:	e1a03000 	.word	0xe1a03000
   1511c:	9a000005 	.word	0x9a000005
   15120:	e59f201c 	.word	0xe59f201c
   15124:	ebfffee9 	.word	0xebfffee9
   15128:	e2633000 	.word	0xe2633000
   1512c:	e79f2002 	.word	0xe79f2002
   15130:	e7803002 	.word	0xe7803002
   15134:	e3e03000 	.word	0xe3e03000
   15138:	e1a00003 	.word	0xe1a00003
   1513c:	e28dd008 	.word	0xe28dd008
   15140:	e8bd8080 	.word	0xe8bd8080
   15144:	000594d4 	.word	0x000594d4

00015148 <__GI___fcntl_nocancel>:
   15148:	e92d000e 	.word	0xe92d000e
   1514c:	e92d4087 	.word	0xe92d4087
   15150:	e59d1014 	.word	0xe59d1014
   15154:	e28d3018 	.word	0xe28d3018
   15158:	e58d3004 	.word	0xe58d3004
   1515c:	e241300c 	.word	0xe241300c
   15160:	e3530002 	.word	0xe3530002
   15164:	e59d2018 	.word	0xe59d2018
   15168:	8a000007 	.word	0x8a000007
   1516c:	e3a070dd 	.word	0xe3a070dd
   15170:	ef000000 	.word	0xef000000
   15174:	e3700a01 	.word	0xe3700a01
   15178:	859f204c 	.word	0x859f204c
   1517c:	e1a03000 	.word	0xe1a03000
   15180:	879f2002 	.word	0x879f2002
   15184:	9a00000b 	.word	0x9a00000b
   15188:	ea000006 	.word	0xea000006
   1518c:	e3a07037 	.word	0xe3a07037
   15190:	ef000000 	.word	0xef000000
   15194:	e3700a01 	.word	0xe3700a01
   15198:	e1a03000 	.word	0xe1a03000
   1519c:	9a000005 	.word	0x9a000005
   151a0:	e59f2028 	.word	0xe59f2028
   151a4:	e79f2002 	.word	0xe79f2002
   151a8:	ebfffec8 	.word	0xebfffec8
   151ac:	e2633000 	.word	0xe2633000
   151b0:	e7803002 	.word	0xe7803002
   151b4:	e3e03000 	.word	0xe3e03000
   151b8:	e1a00003 	.word	0xe1a00003
   151bc:	e28dd00c 	.word	0xe28dd00c
   151c0:	e8bd4080 	.word	0xe8bd4080
   151c4:	e28dd00c 	.word	0xe28dd00c
   151c8:	e12fff1e 	.word	0xe12fff1e
   151cc:	00059480 	.word	0x00059480
   151d0:	0005945c 	.word	0x0005945c

000151d4 <__GI___libc_fcntl>:
   151d4:	e92d000e 	.word	0xe92d000e
   151d8:	e92d41f7 	.word	0xe92d41f7
   151dc:	e59d4024 	.word	0xe59d4024
   151e0:	e28d3028 	.word	0xe28d3028
   151e4:	e58d3004 	.word	0xe58d3004
   151e8:	e59f30b4 	.word	0xe59f30b4
   151ec:	e59d6028 	.word	0xe59d6028
   151f0:	e08f3003 	.word	0xe08f3003
   151f4:	e5933000 	.word	0xe5933000
   151f8:	e3530000 	.word	0xe3530000
   151fc:	0a000002 	.word	0x0a000002
   15200:	e354000e 	.word	0xe354000e
   15204:	13540007 	.word	0x13540007
   15208:	0a00000d 	.word	0x0a00000d
   1520c:	e1a01004 	.word	0xe1a01004
   15210:	e1a02006 	.word	0xe1a02006
   15214:	e3a070dd 	.word	0xe3a070dd
   15218:	ef000000 	.word	0xef000000
   1521c:	e3700a01 	.word	0xe3700a01
   15220:	e1a04000 	.word	0xe1a04000
   15224:	9a000019 	.word	0x9a000019
   15228:	e59f3078 	.word	0xe59f3078
   1522c:	ebfffea7 	.word	0xebfffea7
   15230:	e2644000 	.word	0xe2644000
   15234:	e79f3003 	.word	0xe79f3003
   15238:	e7804003 	.word	0xe7804003
   1523c:	e3e04000 	.word	0xe3e04000
   15240:	ea000012 	.word	0xea000012
   15244:	e1a05000 	.word	0xe1a05000
   15248:	ebfffc98 	.word	0xebfffc98
   1524c:	e3a070dd 	.word	0xe3a070dd
   15250:	e1a01004 	.word	0xe1a01004
   15254:	e1a02006 	.word	0xe1a02006
   15258:	e1a08000 	.word	0xe1a08000
   1525c:	e1a00005 	.word	0xe1a00005
   15260:	ef000000 	.word	0xef000000
   15264:	e3700a01 	.word	0xe3700a01
   15268:	e1a04000 	.word	0xe1a04000
   1526c:	9a000005 	.word	0x9a000005
   15270:	e59f3034 	.word	0xe59f3034
   15274:	ebfffe95 	.word	0xebfffe95
   15278:	e2644000 	.word	0xe2644000
   1527c:	e79f3003 	.word	0xe79f3003
   15280:	e7804003 	.word	0xe7804003
   15284:	e3e04000 	.word	0xe3e04000
   15288:	e1a00008 	.word	0xe1a00008
   1528c:	ebfffcb6 	.word	0xebfffcb6
   15290:	e1a00004 	.word	0xe1a00004
   15294:	e28dd00c 	.word	0xe28dd00c
   15298:	e8bd41f0 	.word	0xe8bd41f0
   1529c:	e28dd00c 	.word	0xe28dd00c
   152a0:	e12fff1e 	.word	0xe12fff1e
   152a4:	0005cb9c 	.word	0x0005cb9c
   152a8:	000593cc 	.word	0x000593cc
   152ac:	00059384 	.word	0x00059384

000152b0 <__syscall_rt_sigaction>:
   152b0:	e92d4080 	.word	0xe92d4080
   152b4:	e3a070ae 	.word	0xe3a070ae
   152b8:	ef000000 	.word	0xef000000
   152bc:	e3700a01 	.word	0xe3700a01
   152c0:	e1a03000 	.word	0xe1a03000
   152c4:	9a000005 	.word	0x9a000005
   152c8:	e59f2018 	.word	0xe59f2018
   152cc:	ebfffe7f 	.word	0xebfffe7f
   152d0:	e2633000 	.word	0xe2633000
   152d4:	e79f2002 	.word	0xe79f2002
   152d8:	e7803002 	.word	0xe7803002
   152dc:	e3e03000 	.word	0xe3e03000
   152e0:	e1a00003 	.word	0xe1a00003
   152e4:	e8bd8080 	.word	0xe8bd8080
   152e8:	0005932c 	.word	0x0005932c

000152ec <__GI_lseek64>:
   152ec:	e92d4097 	.word	0xe92d4097
   152f0:	e59d4018 	.word	0xe59d4018
   152f4:	e1a01003 	.word	0xe1a01003
   152f8:	e3a0708c 	.word	0xe3a0708c
   152fc:	e1a0300d 	.word	0xe1a0300d
   15300:	ef000000 	.word	0xef000000
   15304:	e3700a01 	.word	0xe3700a01
   15308:	e1a03000 	.word	0xe1a03000
   1530c:	9a000006 	.word	0x9a000006
   15310:	e59f2030 	.word	0xe59f2030
   15314:	ebfffe6d 	.word	0xebfffe6d
   15318:	e2633000 	.word	0xe2633000
   1531c:	e79f2002 	.word	0xe79f2002
   15320:	e7803002 	.word	0xe7803002
   15324:	e3e03000 	.word	0xe3e03000
   15328:	ea000002 	.word	0xea000002
   1532c:	e3530000 	.word	0xe3530000
   15330:	e1cd00d0 	.word	0xe1cd00d0
   15334:	0a000001 	.word	0x0a000001
   15338:	e1a00003 	.word	0xe1a00003
   1533c:	e1a01fc3 	.word	0xe1a01fc3
   15340:	e28dd00c 	.word	0xe28dd00c
   15344:	e8bd8090 	.word	0xe8bd8090
   15348:	000592e4 	.word	0x000592e4

0001534c <__GI_closedir>:
   1534c:	e5903000 	.word	0xe5903000
   15350:	e59f20bc 	.word	0xe59f20bc
   15354:	e3730001 	.word	0xe3730001
   15358:	e92d40f0 	.word	0xe92d40f0
   1535c:	e08f2002 	.word	0xe08f2002
   15360:	e24dd01c 	.word	0xe24dd01c
   15364:	1a000005 	.word	0x1a000005
   15368:	e59f20a8 	.word	0xe59f20a8
   1536c:	ebfffe57 	.word	0xebfffe57
   15370:	e3a01009 	.word	0xe3a01009
   15374:	e79f2002 	.word	0xe79f2002
   15378:	e7801002 	.word	0xe7801002
   1537c:	ea000021 	.word	0xea000021
   15380:	e59f3094 	.word	0xe59f3094
   15384:	e2806018 	.word	0xe2806018
   15388:	e7923003 	.word	0xe7923003
   1538c:	e28d5008 	.word	0xe28d5008
   15390:	e1a02006 	.word	0xe1a02006
   15394:	e1a01003 	.word	0xe1a01003
   15398:	e1a04000 	.word	0xe1a04000
   1539c:	e1a00005 	.word	0xe1a00005
   153a0:	e58d3004 	.word	0xe58d3004
   153a4:	ebfffca6 	.word	0xebfffca6
   153a8:	e1a00006 	.word	0xe1a00006
   153ac:	e3e06000 	.word	0xe3e06000
   153b0:	ebfffc9f 	.word	0xebfffc9f
   153b4:	e5947000 	.word	0xe5947000
   153b8:	e3a01001 	.word	0xe3a01001
   153bc:	e1a00005 	.word	0xe1a00005
   153c0:	e5846000 	.word	0xe5846000
   153c4:	ebfffca0 	.word	0xebfffca0
   153c8:	e594000c 	.word	0xe594000c
   153cc:	ebffed40 	.word	0xebffed40
   153d0:	e1a00004 	.word	0xe1a00004
   153d4:	ebffed3e 	.word	0xebffed3e
   153d8:	e1a00007 	.word	0xe1a00007
   153dc:	e3a07006 	.word	0xe3a07006
   153e0:	ef000000 	.word	0xef000000
   153e4:	e3700a01 	.word	0xe3700a01
   153e8:	e1a03000 	.word	0xe1a03000
   153ec:	9a000005 	.word	0x9a000005
   153f0:	e59f2028 	.word	0xe59f2028
   153f4:	ebfffe35 	.word	0xebfffe35
   153f8:	e2633000 	.word	0xe2633000
   153fc:	e79f2002 	.word	0xe79f2002
   15400:	e7803002 	.word	0xe7803002
   15404:	e1a03006 	.word	0xe1a03006
   15408:	e1a00003 	.word	0xe1a00003
   1540c:	e28dd01c 	.word	0xe28dd01c
   15410:	e8bd80f0 	.word	0xe8bd80f0
   15414:	0005923c 	.word	0x0005923c
   15418:	0005928c 	.word	0x0005928c
   1541c:	00000050 	.word	0x00000050
   15420:	00059204 	.word	0x00059204
   15424:	e92d4070 	.word	0xe92d4070
   15428:	e1a06000 	.word	0xe1a06000
   1542c:	e3a00030 	.word	0xe3a00030
   15430:	e1a05001 	.word	0xe1a05001
   15434:	ebffec65 	.word	0xebffec65
   15438:	e3a03000 	.word	0xe3a03000
   1543c:	e2504000 	.word	0xe2504000
   15440:	0a00001a 	.word	0x0a00001a
   15444:	e3550c02 	.word	0xe3550c02
   15448:	e5843010 	.word	0xe5843010
   1544c:	e5843008 	.word	0xe5843008
   15450:	e5843004 	.word	0xe5843004
   15454:	33a03c02 	.word	0x33a03c02
   15458:	25845014 	.word	0x25845014
   1545c:	35843014 	.word	0x35843014
   15460:	e5846000 	.word	0xe5846000
   15464:	e5941014 	.word	0xe5941014
   15468:	e3a00001 	.word	0xe3a00001
   1546c:	ebffec94 	.word	0xebffec94
   15470:	e3a03000 	.word	0xe3a03000
   15474:	e3500000 	.word	0xe3500000
   15478:	e1a05000 	.word	0xe1a05000
   1547c:	e584000c 	.word	0xe584000c
   15480:	1a000003 	.word	0x1a000003
   15484:	e1a00004 	.word	0xe1a00004
   15488:	ebffed11 	.word	0xebffed11
   1548c:	e1a00005 	.word	0xe1a00005
   15490:	e8bd8070 	.word	0xe8bd8070
   15494:	e3a02001 	.word	0xe3a02001
   15498:	e5843018 	.word	0xe5843018
   1549c:	e584301c 	.word	0xe584301c
   154a0:	e5843020 	.word	0xe5843020
   154a4:	e5842024 	.word	0xe5842024
   154a8:	e5843028 	.word	0xe5843028
   154ac:	e584302c 	.word	0xe584302c
   154b0:	e1a00004 	.word	0xe1a00004
   154b4:	e8bd8070 	.word	0xe8bd8070

000154b8 <fdopendir>:
   154b8:	e92d4030 	.word	0xe92d4030
   154bc:	e24dd05c 	.word	0xe24dd05c
   154c0:	e1a0100d 	.word	0xe1a0100d
   154c4:	e1a05000 	.word	0xe1a05000
   154c8:	eb0017b2 	.word	0xeb0017b2
   154cc:	e2504000 	.word	0xe2504000
   154d0:	0a000001 	.word	0x0a000001
   154d4:	e3a00000 	.word	0xe3a00000
   154d8:	ea000019 	.word	0xea000019
   154dc:	e59d3010 	.word	0xe59d3010
   154e0:	e2033a0f 	.word	0xe2033a0f
   154e4:	e3530901 	.word	0xe3530901
   154e8:	0a000004 	.word	0x0a000004
   154ec:	e59f3058 	.word	0xe59f3058
   154f0:	ebfffdf6 	.word	0xebfffdf6
   154f4:	e3a02014 	.word	0xe3a02014
   154f8:	e79f3003 	.word	0xe79f3003
   154fc:	ea00000b 	.word	0xea00000b
   15500:	e3a01003 	.word	0xe3a01003
   15504:	e1a00005 	.word	0xe1a00005
   15508:	ebffff31 	.word	0xebffff31
   1550c:	e3700001 	.word	0xe3700001
   15510:	0affffef 	.word	0x0affffef
   15514:	e2000003 	.word	0xe2000003
   15518:	e3500001 	.word	0xe3500001
   1551c:	1a000005 	.word	0x1a000005
   15520:	e59f3028 	.word	0xe59f3028
   15524:	ebfffde9 	.word	0xebfffde9
   15528:	e3a02016 	.word	0xe3a02016
   1552c:	e79f3003 	.word	0xe79f3003
   15530:	e7802003 	.word	0xe7802003
   15534:	eaffffe6 	.word	0xeaffffe6
   15538:	e59d1030 	.word	0xe59d1030
   1553c:	e1a00005 	.word	0xe1a00005
   15540:	ebffffb7 	.word	0xebffffb7
   15544:	e28dd05c 	.word	0xe28dd05c
   15548:	e8bd8030 	.word	0xe8bd8030
   1554c:	00059108 	.word	0x00059108
   15550:	000590d4 	.word	0x000590d4

00015554 <__GI_opendir>:
   15554:	e92d4090 	.word	0xe92d4090
   15558:	e59f10ac 	.word	0xe59f10ac
   1555c:	e24dd05c 	.word	0xe24dd05c
   15560:	e3a07005 	.word	0xe3a07005
   15564:	ef000000 	.word	0xef000000
   15568:	e3700a01 	.word	0xe3700a01
   1556c:	e1a04000 	.word	0xe1a04000
   15570:	9a000005 	.word	0x9a000005
   15574:	e59f3094 	.word	0xe59f3094
   15578:	ebfffdd4 	.word	0xebfffdd4
   1557c:	e2644000 	.word	0xe2644000
   15580:	e79f3003 	.word	0xe79f3003
   15584:	e7804003 	.word	0xe7804003
   15588:	ea000008 	.word	0xea000008
   1558c:	e3500000 	.word	0xe3500000
   15590:	ba000006 	.word	0xba000006
   15594:	e1a0100d 	.word	0xe1a0100d
   15598:	eb00177e 	.word	0xeb00177e
   1559c:	e3500000 	.word	0xe3500000
   155a0:	aa000004 	.word	0xaa000004
   155a4:	e1a00004 	.word	0xe1a00004
   155a8:	e3a07006 	.word	0xe3a07006
   155ac:	ef000000 	.word	0xef000000
   155b0:	e3a00000 	.word	0xe3a00000
   155b4:	ea000012 	.word	0xea000012
   155b8:	e3a02001 	.word	0xe3a02001
   155bc:	e3a01002 	.word	0xe3a01002
   155c0:	e1a00004 	.word	0xe1a00004
   155c4:	ebfffedf 	.word	0xebfffedf
   155c8:	e59d1030 	.word	0xe59d1030
   155cc:	e1a00004 	.word	0xe1a00004
   155d0:	ebffff93 	.word	0xebffff93
   155d4:	e2503000 	.word	0xe2503000
   155d8:	11a00003 	.word	0x11a00003
   155dc:	1a000008 	.word	0x1a000008
   155e0:	e1a00004 	.word	0xe1a00004
   155e4:	e3a07006 	.word	0xe3a07006
   155e8:	ef000000 	.word	0xef000000
   155ec:	e59f2020 	.word	0xe59f2020
   155f0:	ebfffdb6 	.word	0xebfffdb6
   155f4:	e3a0100c 	.word	0xe3a0100c
   155f8:	e79f2002 	.word	0xe79f2002
   155fc:	e7801002 	.word	0xe7801002
   15600:	eaffffea 	.word	0xeaffffea
   15604:	e28dd05c 	.word	0xe28dd05c
   15608:	e8bd8090 	.word	0xe8bd8090
   1560c:	00084800 	.word	0x00084800
   15610:	00059080 	.word	0x00059080
   15614:	00059008 	.word	0x00059008

00015618 <__GI_readdir64>:
   15618:	e59f30b8 	.word	0xe59f30b8
   1561c:	e59f20b8 	.word	0xe59f20b8
   15620:	e08f3003 	.word	0xe08f3003
   15624:	e92d40f0 	.word	0xe92d40f0
   15628:	e7933002 	.word	0xe7933002
   1562c:	e24dd01c 	.word	0xe24dd01c
   15630:	e2805018 	.word	0xe2805018
   15634:	e28d6008 	.word	0xe28d6008
   15638:	e1a02005 	.word	0xe1a02005
   1563c:	e1a01003 	.word	0xe1a01003
   15640:	e1a04000 	.word	0xe1a04000
   15644:	e1a00006 	.word	0xe1a00006
   15648:	e58d3004 	.word	0xe58d3004
   1564c:	ebfffbfc 	.word	0xebfffbfc
   15650:	e1a00005 	.word	0xe1a00005
   15654:	ebfffbf6 	.word	0xebfffbf6
   15658:	e3a07000 	.word	0xe3a07000
   1565c:	e5942008 	.word	0xe5942008
   15660:	e5943004 	.word	0xe5943004
   15664:	e1520003 	.word	0xe1520003
   15668:	8a000007 	.word	0x8a000007
   1566c:	e5942014 	.word	0xe5942014
   15670:	e594100c 	.word	0xe594100c
   15674:	e5940000 	.word	0xe5940000
   15678:	eb001803 	.word	0xeb001803
   1567c:	e3500000 	.word	0xe3500000
   15680:	da00000d 	.word	0xda00000d
   15684:	e5840008 	.word	0xe5840008
   15688:	e5847004 	.word	0xe5847004
   1568c:	e5943004 	.word	0xe5943004
   15690:	e594100c 	.word	0xe594100c
   15694:	e0815003 	.word	0xe0815003
   15698:	e1d521b0 	.word	0xe1d521b0
   1569c:	e0822003 	.word	0xe0822003
   156a0:	e5842004 	.word	0xe5842004
   156a4:	e5952008 	.word	0xe5952008
   156a8:	e5842010 	.word	0xe5842010
   156ac:	e18320d1 	.word	0xe18320d1
   156b0:	e1923003 	.word	0xe1923003
   156b4:	0affffe8 	.word	0x0affffe8
   156b8:	ea000000 	.word	0xea000000
   156bc:	e3a05000 	.word	0xe3a05000
   156c0:	e1a00006 	.word	0xe1a00006
   156c4:	e3a01001 	.word	0xe3a01001
   156c8:	ebfffbdf 	.word	0xebfffbdf
   156cc:	e1a00005 	.word	0xe1a00005
   156d0:	e28dd01c 	.word	0xe28dd01c
   156d4:	e8bd80f0 	.word	0xe8bd80f0
   156d8:	00058f78 	.word	0x00058f78
   156dc:	00000050 	.word	0x00000050

000156e0 <__GI_config_open>:
   156e0:	e59f1030 	.word	0xe59f1030
   156e4:	e92d4010 	.word	0xe92d4010
   156e8:	e08f1001 	.word	0xe08f1001
   156ec:	eb000a1b 	.word	0xeb000a1b
   156f0:	e2504000 	.word	0xe2504000
   156f4:	0a000005 	.word	0x0a000005
   156f8:	e3a01018 	.word	0xe3a01018
   156fc:	e3a00001 	.word	0xe3a00001
   15700:	ebffebef 	.word	0xebffebef
   15704:	e3500000 	.word	0xe3500000
   15708:	15804000 	.word	0x15804000
   1570c:	e8bd8010 	.word	0xe8bd8010
   15710:	e1a00004 	.word	0xe1a00004
   15714:	e8bd8010 	.word	0xe8bd8010
   15718:	00009104 	.word	0x00009104

0001571c <__GI_config_close>:
   1571c:	e3500000 	.word	0xe3500000
   15720:	012fff1e 	.word	0x012fff1e
   15724:	e92d4010 	.word	0xe92d4010
   15728:	e1a04000 	.word	0xe1a04000
   1572c:	e5900000 	.word	0xe5900000
   15730:	eb000941 	.word	0xeb000941
   15734:	e5943014 	.word	0xe5943014
   15738:	e3530000 	.word	0xe3530000
   1573c:	0a000001 	.word	0x0a000001
   15740:	e5940004 	.word	0xe5940004
   15744:	ebffec62 	.word	0xebffec62
   15748:	e1a00004 	.word	0xe1a00004
   1574c:	e8bd4010 	.word	0xe8bd4010
   15750:	eaffec5f 	.word	0xeaffec5f

00015754 <__GI_config_read>:
   15754:	e3500000 	.word	0xe3500000
   15758:	0a0000c5 	.word	0x0a0000c5
   1575c:	e92d4ff0 	.word	0xe92d4ff0
   15760:	e1a06003 	.word	0xe1a06003
   15764:	e2023cff 	.word	0xe2023cff
   15768:	e24dd024 	.word	0xe24dd024
   1576c:	e20290ff 	.word	0xe20290ff
   15770:	e1a03423 	.word	0xe1a03423
   15774:	e58d3008 	.word	0xe58d3008
   15778:	e1a03109 	.word	0xe1a03109
   1577c:	e58d3000 	.word	0xe58d3000
   15780:	e2833001 	.word	0xe2833001
   15784:	e58d3018 	.word	0xe58d3018
   15788:	e1a04000 	.word	0xe1a04000
   1578c:	e2493001 	.word	0xe2493001
   15790:	e1a05002 	.word	0xe1a05002
   15794:	e58d1004 	.word	0xe58d1004
   15798:	e58d301c 	.word	0xe58d301c
   1579c:	e5943004 	.word	0xe5943004
   157a0:	e3530000 	.word	0xe3530000
   157a4:	1a000013 	.word	0x1a000013
   157a8:	e5943010 	.word	0xe5943010
   157ac:	e3530000 	.word	0xe3530000
   157b0:	03a03051 	.word	0x03a03051
   157b4:	05843010 	.word	0x05843010
   157b8:	e5943008 	.word	0xe5943008
   157bc:	e5940010 	.word	0xe5940010
   157c0:	e3530000 	.word	0xe3530000
   157c4:	059d3018 	.word	0x059d3018
   157c8:	05843008 	.word	0x05843008
   157cc:	e5943008 	.word	0xe5943008
   157d0:	e0800003 	.word	0xe0800003
   157d4:	ebffeb7d 	.word	0xebffeb7d
   157d8:	e3500000 	.word	0xe3500000
   157dc:	e5840004 	.word	0xe5840004
   157e0:	1a000001 	.word	0x1a000001
   157e4:	e3a00000 	.word	0xe3a00000
   157e8:	ea00009f 	.word	0xea00009f
   157ec:	e5943014 	.word	0xe5943014
   157f0:	e3833001 	.word	0xe3833001
   157f4:	e5843014 	.word	0xe5843014
   157f8:	e994000c 	.word	0xe994000c
   157fc:	e0823003 	.word	0xe0823003
   15800:	e3a08000 	.word	0xe3a08000
   15804:	e584300c 	.word	0xe584300c
   15808:	e5941010 	.word	0xe5941010
   1580c:	e594000c 	.word	0xe594000c
   15810:	e5942000 	.word	0xe5942000
   15814:	e0681001 	.word	0xe0681001
   15818:	e0800008 	.word	0xe0800008
   1581c:	eb000ff2 	.word	0xeb000ff2
   15820:	e250a000 	.word	0xe250a000
   15824:	1a000004 	.word	0x1a000004
   15828:	e5942010 	.word	0xe5942010
   1582c:	e1a0100a 	.word	0xe1a0100a
   15830:	e594000c 	.word	0xe594000c
   15834:	ebfff229 	.word	0xebfff229
   15838:	eaffffe9 	.word	0xeaffffe9
   1583c:	e594a00c 	.word	0xe594a00c
   15840:	e08a0008 	.word	0xe08a0008
   15844:	ebfff24d 	.word	0xebfff24d
   15848:	e3a0100a 	.word	0xe3a0100a
   1584c:	e0808008 	.word	0xe0808008
   15850:	e1a0000a 	.word	0xe1a0000a
   15854:	eb0013c8 	.word	0xeb0013c8
   15858:	e3500000 	.word	0xe3500000
   1585c:	0a000008 	.word	0x0a000008
   15860:	e5d03000 	.word	0xe5d03000
   15864:	e2433001 	.word	0xe2433001
   15868:	e20330ff 	.word	0xe20330ff
   1586c:	e353005c 	.word	0xe353005c
   15870:	e5c03000 	.word	0xe5c03000
   15874:	12488001 	.word	0x12488001
   15878:	1a000021 	.word	0x1a000021
   1587c:	e2488002 	.word	0xe2488002
   15880:	eaffffe0 	.word	0xeaffffe0
   15884:	e5943014 	.word	0xe5943014
   15888:	e3530000 	.word	0xe3530000
   1588c:	0a000016 	.word	0x0a000016
   15890:	e5943010 	.word	0xe5943010
   15894:	e5941008 	.word	0xe5941008
   15898:	e2833a01 	.word	0xe2833a01
   1589c:	e5843010 	.word	0xe5843010
   158a0:	e0831001 	.word	0xe0831001
   158a4:	e5940004 	.word	0xe5940004
   158a8:	ebffebca 	.word	0xebffebca
   158ac:	e5943008 	.word	0xe5943008
   158b0:	e5840004 	.word	0xe5840004
   158b4:	e0800003 	.word	0xe0800003
   158b8:	e584000c 	.word	0xe584000c
   158bc:	eaffffd1 	.word	0xeaffffd1
   158c0:	e5903010 	.word	0xe5903010
   158c4:	e5902018 	.word	0xe5902018
   158c8:	e1530002 	.word	0xe1530002
   158cc:	32832001 	.word	0x32832001
   158d0:	35802010 	.word	0x35802010
   158d4:	35d30000 	.word	0x35d30000
   158d8:	3a000000 	.word	0x3a000000
   158dc:	eb001182 	.word	0xeb001182
   158e0:	e350000a 	.word	0xe350000a
   158e4:	13700001 	.word	0x13700001
   158e8:	0a000005 	.word	0x0a000005
   158ec:	e5940000 	.word	0xe5940000
   158f0:	e5903048 	.word	0xe5903048
   158f4:	e3530000 	.word	0xe3530000
   158f8:	1afffff0 	.word	0x1afffff0
   158fc:	eb000f69 	.word	0xeb000f69
   15900:	eafffff6 	.word	0xeafffff6
   15904:	e3780001 	.word	0xe3780001
   15908:	0affffb5 	.word	0x0affffb5
   1590c:	e2153802 	.word	0xe2153802
   15910:	e594700c 	.word	0xe594700c
   15914:	e58d300c 	.word	0xe58d300c
   15918:	0a000003 	.word	0x0a000003
   1591c:	e1a00007 	.word	0xe1a00007
   15920:	e2861001 	.word	0xe2861001
   15924:	eb001498 	.word	0xeb001498
   15928:	e0877000 	.word	0xe0877000
   1592c:	e5d72000 	.word	0xe5d72000
   15930:	e3520000 	.word	0xe3520000
   15934:	0affff98 	.word	0x0affff98
   15938:	e5d61000 	.word	0xe5d61000
   1593c:	e1510002 	.word	0xe1510002
   15940:	0affff95 	.word	0x0affff95
   15944:	e59d3004 	.word	0xe59d3004
   15948:	e5940004 	.word	0xe5940004
   1594c:	e59d2000 	.word	0xe59d2000
   15950:	e5830000 	.word	0xe5830000
   15954:	e3a01000 	.word	0xe3a01000
   15958:	ebfff1e0 	.word	0xebfff1e0
   1595c:	e2053701 	.word	0xe2053701
   15960:	e58d3010 	.word	0xe58d3010
   15964:	e3a0b000 	.word	0xe3a0b000
   15968:	e2053801 	.word	0xe2053801
   1596c:	e286a001 	.word	0xe286a001
   15970:	e58d3014 	.word	0xe58d3014
   15974:	e5d71000 	.word	0xe5d71000
   15978:	e3510000 	.word	0xe3510000
   1597c:	0a000033 	.word	0x0a000033
   15980:	e5d60000 	.word	0xe5d60000
   15984:	e1500001 	.word	0xe1500001
   15988:	115b0009 	.word	0x115b0009
   1598c:	aa00002f 	.word	0xaa00002f
   15990:	e59d3004 	.word	0xe59d3004
   15994:	e5931000 	.word	0xe5931000
   15998:	e59d301c 	.word	0xe59d301c
   1599c:	e781710b 	.word	0xe781710b
   159a0:	e15b0003 	.word	0xe15b0003
   159a4:	e5d68000 	.word	0xe5d68000
   159a8:	1a000002 	.word	0x1a000002
   159ac:	e59d3010 	.word	0xe59d3010
   159b0:	e3530000 	.word	0xe3530000
   159b4:	1a000006 	.word	0x1a000006
   159b8:	e3580000 	.word	0xe3580000
   159bc:	e1a00007 	.word	0xe1a00007
   159c0:	11a01006 	.word	0x11a01006
   159c4:	01a0100a 	.word	0x01a0100a
   159c8:	eb0013e9 	.word	0xeb0013e9
   159cc:	e0877000 	.word	0xe0877000
   159d0:	ea00000c 	.word	0xea00000c
   159d4:	e1a00007 	.word	0xe1a00007
   159d8:	e1a01008 	.word	0xe1a01008
   159dc:	eb0013a6 	.word	0xeb0013a6
   159e0:	e59d300c 	.word	0xe59d300c
   159e4:	e3530000 	.word	0xe3530000
   159e8:	e1a07000 	.word	0xe1a07000
   159ec:	0a000005 	.word	0x0a000005
   159f0:	e5571001 	.word	0xe5571001
   159f4:	e1a0000a 	.word	0xe1a0000a
   159f8:	eb00135f 	.word	0xeb00135f
   159fc:	e3500000 	.word	0xe3500000
   15a00:	12477001 	.word	0x12477001
   15a04:	1afffff9 	.word	0x1afffff9
   15a08:	e5d71000 	.word	0xe5d71000
   15a0c:	e1580001 	.word	0xe1580001
   15a10:	03a03000 	.word	0x03a03000
   15a14:	05c73000 	.word	0x05c73000
   15a18:	0a000003 	.word	0x0a000003
   15a1c:	e3510000 	.word	0xe3510000
   15a20:	13a03000 	.word	0x13a03000
   15a24:	15c73000 	.word	0x15c73000
   15a28:	12877001 	.word	0x12877001
   15a2c:	e59d3014 	.word	0xe59d3014
   15a30:	e3530000 	.word	0xe3530000
   15a34:	0a000003 	.word	0x0a000003
   15a38:	e1a00007 	.word	0xe1a00007
   15a3c:	e1a0100a 	.word	0xe1a0100a
   15a40:	eb001451 	.word	0xeb001451
   15a44:	e0877000 	.word	0xe0877000
   15a48:	e28bb001 	.word	0xe28bb001
   15a4c:	eaffffc8 	.word	0xeaffffc8
   15a50:	e59d3008 	.word	0xe59d3008
   15a54:	e15b0003 	.word	0xe15b0003
   15a58:	aa000002 	.word	0xaa000002
   15a5c:	e3150601 	.word	0xe3150601
   15a60:	0affff4d 	.word	0x0affff4d
   15a64:	eaffff5e 	.word	0xeaffff5e
   15a68:	e1a0000b 	.word	0xe1a0000b
   15a6c:	e28dd024 	.word	0xe28dd024
   15a70:	e8bd8ff0 	.word	0xe8bd8ff0
   15a74:	e3a00000 	.word	0xe3a00000
   15a78:	e12fff1e 	.word	0xe12fff1e

00015a7c <_locale_set_l>:
   15a7c:	e92d4ff0 	.word	0xe92d4ff0
   15a80:	e5d02009 	.word	0xe5d02009
   15a84:	e3a03000 	.word	0xe3a03000
   15a88:	e24dd064 	.word	0xe24dd064
   15a8c:	e58d3054 	.word	0xe58d3054
   15a90:	e5d13909 	.word	0xe5d13909
   15a94:	e59f86f8 	.word	0xe59f86f8
   15a98:	e1520003 	.word	0xe1520003
   15a9c:	e08f8008 	.word	0xe08f8008
   15aa0:	e1a06000 	.word	0xe1a06000
   15aa4:	e1a04001 	.word	0xe1a04001
   15aa8:	1a000003 	.word	0x1a000003
   15aac:	e5d0200a 	.word	0xe5d0200a
   15ab0:	e5d1390a 	.word	0xe5d1390a
   15ab4:	e1520003 	.word	0xe1520003
   15ab8:	0a0000ad 	.word	0x0a0000ad
   15abc:	e59f36d4 	.word	0xe59f36d4
   15ac0:	e28da018 	.word	0xe28da018
   15ac4:	e7983003 	.word	0xe7983003
   15ac8:	e5937000 	.word	0xe5937000
   15acc:	e5d63001 	.word	0xe5d63001
   15ad0:	e203207f 	.word	0xe203207f
   15ad4:	e5d63002 	.word	0xe5d63002
   15ad8:	e203307f 	.word	0xe203307f
   15adc:	e0833382 	.word	0xe0833382
   15ae0:	e59f26b4 	.word	0xe59f26b4
   15ae4:	e0833183 	.word	0xe0833183
   15ae8:	e0873003 	.word	0xe0873003
   15aec:	e7d31002 	.word	0xe7d31002
   15af0:	e3510000 	.word	0xe3510000
   15af4:	01cd11b8 	.word	0x01cd11b8
   15af8:	0a000096 	.word	0x0a000096
   15afc:	e2879b43 	.word	0xe2879b43
   15b00:	e2877801 	.word	0xe2877801
   15b04:	e2877ed7 	.word	0xe2877ed7
   15b08:	e1d720b0 	.word	0xe1d720b0
   15b0c:	e3a05026 	.word	0xe3a05026
   15b10:	e0020295 	.word	0xe0020295
   15b14:	e2899e17 	.word	0xe2899e17
   15b18:	e0822181 	.word	0xe0822181
   15b1c:	e2822008 	.word	0xe2822008
   15b20:	e199b0b2 	.word	0xe199b0b2
   15b24:	e0893002 	.word	0xe0893002
   15b28:	e02b9b95 	.word	0xe02b9b95
   15b2c:	e3a0201c 	.word	0xe3a0201c
   15b30:	e28bb010 	.word	0xe28bb010
   15b34:	e1a0100b 	.word	0xe1a0100b
   15b38:	e1a0000a 	.word	0xe1a0000a
   15b3c:	e58d3000 	.word	0xe58d3000
   15b40:	ebfff162 	.word	0xebfff162
   15b44:	e59d3000 	.word	0xe59d3000
   15b48:	e1dd11be 	.word	0xe1dd11be
   15b4c:	e1d320b2 	.word	0xe1d320b2
   15b50:	e1dd02b8 	.word	0xe1dd02b8
   15b54:	e1cd22ba 	.word	0xe1cd22ba
   15b58:	e3a02001 	.word	0xe3a02001
   15b5c:	e1a01112 	.word	0xe1a01112
   15b60:	e2411001 	.word	0xe2411001
   15b64:	e1cd13b6 	.word	0xe1cd13b6
   15b68:	e1dd11bc 	.word	0xe1dd11bc
   15b6c:	e2800001 	.word	0xe2800001
   15b70:	e1a02112 	.word	0xe1a02112
   15b74:	e2422001 	.word	0xe2422001
   15b78:	e1cd23b4 	.word	0xe1cd23b4
   15b7c:	e1d720b2 	.word	0xe1d720b2
   15b80:	e1d710b0 	.word	0xe1d710b0
   15b84:	e1a02182 	.word	0xe1a02182
   15b88:	e0252591 	.word	0xe0252591
   15b8c:	e1db21bc 	.word	0xe1db21bc
   15b90:	e2855010 	.word	0xe2855010
   15b94:	e1a050a5 	.word	0xe1a050a5
   15b98:	e0852002 	.word	0xe0852002
   15b9c:	e0892082 	.word	0xe0892082
   15ba0:	e58d2038 	.word	0xe58d2038
   15ba4:	e1d720b6 	.word	0xe1d720b6
   15ba8:	e1db11be 	.word	0xe1db11be
   15bac:	e0855002 	.word	0xe0855002
   15bb0:	e0851001 	.word	0xe0851001
   15bb4:	e0891081 	.word	0xe0891081
   15bb8:	e58d103c 	.word	0xe58d103c
   15bbc:	e1d310b6 	.word	0xe1d310b6
   15bc0:	e0852002 	.word	0xe0852002
   15bc4:	e0821001 	.word	0xe0821001
   15bc8:	e0891081 	.word	0xe0891081
   15bcc:	e58d1040 	.word	0xe58d1040
   15bd0:	e1d710ba 	.word	0xe1d710ba
   15bd4:	e1d330b4 	.word	0xe1d330b4
   15bd8:	e0822001 	.word	0xe0822001
   15bdc:	e0823003 	.word	0xe0823003
   15be0:	e0893083 	.word	0xe0893083
   15be4:	e58d3048 	.word	0xe58d3048
   15be8:	e1d730bc 	.word	0xe1d730bc
   15bec:	e1d710b8 	.word	0xe1d710b8
   15bf0:	e0823003 	.word	0xe0823003
   15bf4:	e0892083 	.word	0xe0892083
   15bf8:	e58d2050 	.word	0xe58d2050
   15bfc:	e1d720be 	.word	0xe1d720be
   15c00:	e1a00080 	.word	0xe1a00080
   15c04:	e0833002 	.word	0xe0833002
   15c08:	e0892083 	.word	0xe0892083
   15c0c:	e58d204c 	.word	0xe58d204c
   15c10:	e1db22b2 	.word	0xe1db22b2
   15c14:	e0822001 	.word	0xe0822001
   15c18:	e1db12b4 	.word	0xe1db12b4
   15c1c:	e0822801 	.word	0xe0822801
   15c20:	e0823003 	.word	0xe0823003
   15c24:	e0899083 	.word	0xe0899083
   15c28:	e1d730b4 	.word	0xe1d730b4
   15c2c:	e3a01002 	.word	0xe3a01002
   15c30:	e1cd35bc 	.word	0xe1cd35bc
   15c34:	e58d9044 	.word	0xe58d9044
   15c38:	ebffeaa1 	.word	0xebffeaa1
   15c3c:	e3500000 	.word	0xe3500000
   15c40:	e1a03000 	.word	0xe1a03000
   15c44:	e58d0054 	.word	0xe58d0054
   15c48:	0a00014f 	.word	0x0a00014f
   15c4c:	e1dd22b8 	.word	0xe1dd22b8
   15c50:	e59d1038 	.word	0xe59d1038
   15c54:	e2822001 	.word	0xe2822001
   15c58:	e0833082 	.word	0xe0833082
   15c5c:	e1dd22b6 	.word	0xe1dd22b6
   15c60:	e58d3058 	.word	0xe58d3058
   15c64:	e1a02082 	.word	0xe1a02082
   15c68:	ebfff118 	.word	0xebfff118
   15c6c:	e1dd22b6 	.word	0xe1dd22b6
   15c70:	e59d103c 	.word	0xe59d103c
   15c74:	e1a02082 	.word	0xe1a02082
   15c78:	e59d0058 	.word	0xe59d0058
   15c7c:	ebfff113 	.word	0xebfff113
   15c80:	e59d2048 	.word	0xe59d2048
   15c84:	e1d230b0 	.word	0xe1d230b0
   15c88:	e3530001 	.word	0xe3530001
   15c8c:	9a000011 	.word	0x9a000011
   15c90:	e1d200b2 	.word	0xe1d200b2
   15c94:	e282e004 	.word	0xe282e004
   15c98:	e1a0200e 	.word	0xe1a0200e
   15c9c:	e0d210b4 	.word	0xe0d210b4
   15ca0:	e59d5054 	.word	0xe59d5054
   15ca4:	e2411106 	.word	0xe2411106
   15ca8:	e1a01081 	.word	0xe1a01081
   15cac:	e18500b1 	.word	0xe18500b1
   15cb0:	e280c001 	.word	0xe280c001
   15cb4:	e1dee0b2 	.word	0xe1dee0b2
   15cb8:	e59d0058 	.word	0xe59d0058
   15cbc:	e1a0c80c 	.word	0xe1a0c80c
   15cc0:	e2533001 	.word	0xe2533001
   15cc4:	e180e0b1 	.word	0xe180e0b1
   15cc8:	e1a0e002 	.word	0xe1a0e002
   15ccc:	e1a0082c 	.word	0xe1a0082c
   15cd0:	1afffff0 	.word	0x1afffff0
   15cd4:	eaffffea 	.word	0xeaffffea
   15cd8:	e1d230b2 	.word	0xe1d230b2
   15cdc:	e3530000 	.word	0xe3530000
   15ce0:	0a000015 	.word	0x0a000015
   15ce4:	e1d200b4 	.word	0xe1d200b4
   15ce8:	e59d1054 	.word	0xe59d1054
   15cec:	e2433106 	.word	0xe2433106
   15cf0:	e1a03083 	.word	0xe1a03083
   15cf4:	e18100b3 	.word	0xe18100b3
   15cf8:	e59d1058 	.word	0xe59d1058
   15cfc:	e1d200b6 	.word	0xe1d200b6
   15d00:	e2822006 	.word	0xe2822006
   15d04:	e18100b3 	.word	0xe18100b3
   15d08:	eafffff2 	.word	0xeafffff2
   15d0c:	e1d100b0 	.word	0xe1d100b0
   15d10:	e2812002 	.word	0xe2812002
   15d14:	e3500000 	.word	0xe3500000
   15d18:	e1a01002 	.word	0xe1a01002
   15d1c:	1afffffa 	.word	0x1afffffa
   15d20:	e2821002 	.word	0xe2821002
   15d24:	e1d220b2 	.word	0xe1d220b2
   15d28:	e3520000 	.word	0xe3520000
   15d2c:	1afffff6 	.word	0x1afffff6
   15d30:	e2833001 	.word	0xe2833001
   15d34:	e1a03803 	.word	0xe1a03803
   15d38:	e1a03823 	.word	0xe1a03823
   15d3c:	e59d2040 	.word	0xe59d2040
   15d40:	e1d210b0 	.word	0xe1d210b0
   15d44:	e1510003 	.word	0xe1510003
   15d48:	81a01083 	.word	0x81a01083
   15d4c:	819210b1 	.word	0x819210b1
   15d50:	80822081 	.word	0x80822081
   15d54:	8afffff1 	.word	0x8afffff1
   15d58:	e5940b10 	.word	0xe5940b10
   15d5c:	ebffeadc 	.word	0xebffeadc
   15d60:	e2840ead 	.word	0xe2840ead
   15d64:	e3a02048 	.word	0xe3a02048
   15d68:	e1a0100a 	.word	0xe1a0100a
   15d6c:	e2800004 	.word	0xe2800004
   15d70:	ebfff0d6 	.word	0xebfff0d6
   15d74:	e2843e95 	.word	0xe2843e95
   15d78:	e283300c 	.word	0xe283300c
   15d7c:	e58d3010 	.word	0xe58d3010
   15d80:	e59f3418 	.word	0xe59f3418
   15d84:	e2847c09 	.word	0xe2847c09
   15d88:	e08f3003 	.word	0xe08f3003
   15d8c:	e2877001 	.word	0xe2877001
   15d90:	e2866001 	.word	0xe2866001
   15d94:	e3a05000 	.word	0xe3a05000
   15d98:	e58d3014 	.word	0xe58d3014
   15d9c:	e5d72000 	.word	0xe5d72000
   15da0:	e5d63000 	.word	0xe5d63000
   15da4:	e1520003 	.word	0xe1520003
   15da8:	e5d62001 	.word	0xe5d62001
   15dac:	1a000002 	.word	0x1a000002
   15db0:	e5d71001 	.word	0xe5d71001
   15db4:	e1520001 	.word	0xe1520001
   15db8:	0a0000ed 	.word	0x0a0000ed
   15dbc:	e5c73000 	.word	0xe5c73000
   15dc0:	e5d61001 	.word	0xe5d61001
   15dc4:	e3550004 	.word	0xe3550004
   15dc8:	e5c71001 	.word	0xe5c71001
   15dcc:	0a0000e8 	.word	0x0a0000e8
   15dd0:	e202207f 	.word	0xe202207f
   15dd4:	e203307f 	.word	0xe203307f
   15dd8:	e0823383 	.word	0xe0823383
   15ddc:	e59f23b4 	.word	0xe59f23b4
   15de0:	e7982002 	.word	0xe7982002
   15de4:	e58d2000 	.word	0xe58d2000
   15de8:	e5922000 	.word	0xe5922000
   15dec:	e0821005 	.word	0xe0821005
   15df0:	e2811bf5 	.word	0xe2811bf5
   15df4:	e5d1917a 	.word	0xe5d1917a
   15df8:	e3590000 	.word	0xe3590000
   15dfc:	1a000002 	.word	0x1a000002
   15e00:	e3550000 	.word	0xe3550000
   15e04:	0a000028 	.word	0x0a000028
   15e08:	ea0000c6 	.word	0xea0000c6
   15e0c:	e0831183 	.word	0xe0831183
   15e10:	e59f038c 	.word	0xe59f038c
   15e14:	e0821001 	.word	0xe0821001
   15e18:	e0811005 	.word	0xe0811005
   15e1c:	e0810000 	.word	0xe0810000
   15e20:	e2851d12 	.word	0xe2851d12
   15e24:	e0841081 	.word	0xe0841081
   15e28:	e5d0c000 	.word	0xe5d0c000
   15e2c:	e1d110be 	.word	0xe1d110be
   15e30:	e1a00105 	.word	0xe1a00105
   15e34:	e2800cf5 	.word	0xe2800cf5
   15e38:	e2800060 	.word	0xe2800060
   15e3c:	e58d1004 	.word	0xe58d1004
   15e40:	e0821100 	.word	0xe0821100
   15e44:	e792e100 	.word	0xe792e100
   15e48:	e5910004 	.word	0xe5910004
   15e4c:	e591a008 	.word	0xe591a008
   15e50:	e58d0008 	.word	0xe58d0008
   15e54:	e591100c 	.word	0xe591100c
   15e58:	e020299c 	.word	0xe020299c
   15e5c:	e58d100c 	.word	0xe58d100c
   15e60:	e080c00e 	.word	0xe080c00e
   15e64:	e3a01000 	.word	0xe3a01000
   15e68:	e59db008 	.word	0xe59db008
   15e6c:	e59d0004 	.word	0xe59d0004
   15e70:	e08bb081 	.word	0xe08bb081
   15e74:	e080e101 	.word	0xe080e101
   15e78:	e192b0bb 	.word	0xe192b0bb
   15e7c:	e7dc0001 	.word	0xe7dc0001
   15e80:	e2811001 	.word	0xe2811001
   15e84:	e080000b 	.word	0xe080000b
   15e88:	e08a0080 	.word	0xe08a0080
   15e8c:	e19200b0 	.word	0xe19200b0
   15e90:	e59db00c 	.word	0xe59db00c
   15e94:	e1510009 	.word	0xe1510009
   15e98:	e080000b 	.word	0xe080000b
   15e9c:	e0820000 	.word	0xe0820000
   15ea0:	e784000e 	.word	0xe784000e
   15ea4:	baffffef 	.word	0xbaffffef
   15ea8:	eaffffd4 	.word	0xeaffffd4
   15eac:	e59d2000 	.word	0xe59d2000
   15eb0:	e0833183 	.word	0xe0833183
   15eb4:	e5929000 	.word	0xe5929000
   15eb8:	e59f22e8 	.word	0xe59f22e8
   15ebc:	e0893003 	.word	0xe0893003
   15ec0:	e0832002 	.word	0xe0832002
   15ec4:	e5d2a000 	.word	0xe5d2a000
   15ec8:	e35a0002 	.word	0xe35a0002
   15ecc:	ca00000d 	.word	0xca00000d
   15ed0:	e3a03001 	.word	0xe3a03001
   15ed4:	1a000005 	.word	0x1a000005
   15ed8:	e59f22cc 	.word	0xe59f22cc
   15edc:	e5c43920 	.word	0xe5c43920
   15ee0:	e08f2002 	.word	0xe08f2002
   15ee4:	e5842994 	.word	0xe5842994
   15ee8:	e3a03006 	.word	0xe3a03006
   15eec:	ea000003 	.word	0xea000003
   15ef0:	e59f22b8 	.word	0xe59f22b8
   15ef4:	e5c45920 	.word	0xe5c45920
   15ef8:	e08f2002 	.word	0xe08f2002
   15efc:	e5842994 	.word	0xe5842994
   15f00:	e5c43921 	.word	0xe5c43921
   15f04:	ea00007b 	.word	0xea00007b
   15f08:	e2893bf9 	.word	0xe2893bf9
   15f0c:	e24a2003 	.word	0xe24a2003
   15f10:	e2833084 	.word	0xe2833084
   15f14:	e7d31002 	.word	0xe7d31002
   15f18:	e1a00004 	.word	0xe1a00004
   15f1c:	e0833001 	.word	0xe0833001
   15f20:	e3a01056 	.word	0xe3a01056
   15f24:	e00a0291 	.word	0xe00a0291
   15f28:	e5843994 	.word	0xe5843994
   15f2c:	e3a03002 	.word	0xe3a03002
   15f30:	e5c43920 	.word	0xe5c43920
   15f34:	e3a03001 	.word	0xe3a03001
   15f38:	e5c43921 	.word	0xe5c43921
   15f3c:	e28a3cb5 	.word	0xe28a3cb5
   15f40:	e0893003 	.word	0xe0893003
   15f44:	e28330f4 	.word	0xe28330f4
   15f48:	e584392c 	.word	0xe584392c
   15f4c:	e28a3cb6 	.word	0xe28a3cb6
   15f50:	e0892003 	.word	0xe0892003
   15f54:	e2822004 	.word	0xe2822004
   15f58:	e5842934 	.word	0xe5842934
   15f5c:	e0892003 	.word	0xe0892003
   15f60:	e0893003 	.word	0xe0893003
   15f64:	e2833024 	.word	0xe2833024
   15f68:	e5843944 	.word	0xe5843944
   15f6c:	e59d3014 	.word	0xe59d3014
   15f70:	e2822014 	.word	0xe2822014
   15f74:	e5931000 	.word	0xe5931000
   15f78:	e584293c 	.word	0xe584293c
   15f7c:	e2411c01 	.word	0xe2411c01
   15f80:	e3a02c03 	.word	0xe3a02c03
   15f84:	ebfff051 	.word	0xebfff051
   15f88:	e59f3224 	.word	0xe59f3224
   15f8c:	e3a02c03 	.word	0xe3a02c03
   15f90:	e79f1003 	.word	0xe79f1003
   15f94:	e0840002 	.word	0xe0840002
   15f98:	e2411c01 	.word	0xe2411c01
   15f9c:	ebfff04b 	.word	0xebfff04b
   15fa0:	e59f3210 	.word	0xe59f3210
   15fa4:	e3a02c03 	.word	0xe3a02c03
   15fa8:	e79f1003 	.word	0xe79f1003
   15fac:	e2840c06 	.word	0xe2840c06
   15fb0:	e2411c01 	.word	0xe2411c01
   15fb4:	ebfff045 	.word	0xebfff045
   15fb8:	e1a02005 	.word	0xe1a02005
   15fbc:	e089100a 	.word	0xe089100a
   15fc0:	e1a0c1c2 	.word	0xe1a0c1c2
   15fc4:	e081300c 	.word	0xe081300c
   15fc8:	e2833cb5 	.word	0xe2833cb5
   15fcc:	e5d300f4 	.word	0xe5d300f4
   15fd0:	e5943930 	.word	0xe5943930
   15fd4:	e202b007 	.word	0xe202b007
   15fd8:	e0833100 	.word	0xe0833100
   15fdc:	e7d330cb 	.word	0xe7d330cb
   15fe0:	e594094c 	.word	0xe594094c
   15fe4:	e3120001 	.word	0xe3120001
   15fe8:	11a03243 	.word	0x11a03243
   15fec:	0203300f 	.word	0x0203300f
   15ff0:	e1a03083 	.word	0xe1a03083
   15ff4:	e19090b3 	.word	0xe19090b3
   15ff8:	e1a00082 	.word	0xe1a00082
   15ffc:	e0843000 	.word	0xe0843000
   16000:	e2833c02 	.word	0xe2833c02
   16004:	e352007f 	.word	0xe352007f
   16008:	e1c390b0 	.word	0xe1c390b0
   1600c:	e20230ff 	.word	0xe20230ff
   16010:	1243e080 	.word	0x1243e080
   16014:	11a0ec0e 	.word	0x11a0ec0e
   16018:	11a0ebce 	.word	0x11a0ebce
   1601c:	128eec01 	.word	0x128eec01
   16020:	118490be 	.word	0x118490be
   16024:	e282e080 	.word	0xe282e080
   16028:	e0840000 	.word	0xe0840000
   1602c:	e1a0e80e 	.word	0xe1a0e80e
   16030:	e1a0e82e 	.word	0xe1a0e82e
   16034:	e280ac05 	.word	0xe280ac05
   16038:	e3190003 	.word	0xe3190003
   1603c:	e2800b02 	.word	0xe2800b02
   16040:	e1cae0b0 	.word	0xe1cae0b0
   16044:	e1c0e0b0 	.word	0xe1c0e0b0
   16048:	0a00001b 	.word	0x0a00001b
   1604c:	e081c00c 	.word	0xe081c00c
   16050:	e28cccb6 	.word	0xe28cccb6
   16054:	e5dce004 	.word	0xe5dce004
   16058:	e594c938 	.word	0xe594c938
   1605c:	e2433080 	.word	0xe2433080
   16060:	e08cb00b 	.word	0xe08cb00b
   16064:	e3190002 	.word	0xe3190002
   16068:	e7dbc18e 	.word	0xe7dbc18e
   1606c:	e20330ff 	.word	0xe20330ff
   16070:	0a000008 	.word	0x0a000008
   16074:	e352007f 	.word	0xe352007f
   16078:	e08cc003 	.word	0xe08cc003
   1607c:	11a03c03 	.word	0x11a03c03
   16080:	e20cc0ff 	.word	0xe20cc0ff
   16084:	11a03bc3 	.word	0x11a03bc3
   16088:	e1c0c0b0 	.word	0xe1c0c0b0
   1608c:	12833c07 	.word	0x12833c07
   16090:	1a000008 	.word	0x1a000008
   16094:	ea000008 	.word	0xea000008
   16098:	e06cc003 	.word	0xe06cc003
   1609c:	e20cc0ff 	.word	0xe20cc0ff
   160a0:	e352007f 	.word	0xe352007f
   160a4:	e1cac0b0 	.word	0xe1cac0b0
   160a8:	0a000003 	.word	0x0a000003
   160ac:	e1a03c03 	.word	0xe1a03c03
   160b0:	e1a03bc3 	.word	0xe1a03bc3
   160b4:	e2833b01 	.word	0xe2833b01
   160b8:	e184c0b3 	.word	0xe184c0b3
   160bc:	e2822001 	.word	0xe2822001
   160c0:	e3520080 	.word	0xe3520080
   160c4:	1affffbd 	.word	0x1affffbd
   160c8:	e59f20ec 	.word	0xe59f20ec
   160cc:	e2843c01 	.word	0xe2843c01
   160d0:	e08f2002 	.word	0xe08f2002
   160d4:	e5823000 	.word	0xe5823000
   160d8:	e59f20e0 	.word	0xe59f20e0
   160dc:	e2843b01 	.word	0xe2843b01
   160e0:	e08f2002 	.word	0xe08f2002
   160e4:	e5823000 	.word	0xe5823000
   160e8:	e59f20d4 	.word	0xe59f20d4
   160ec:	e2843c07 	.word	0xe2843c07
   160f0:	e08f2002 	.word	0xe08f2002
   160f4:	e5823000 	.word	0xe5823000
   160f8:	e284ae92 	.word	0xe284ae92
   160fc:	e284be96 	.word	0xe284be96
   16100:	e28aa002 	.word	0xe28aa002
   16104:	e28bb00c 	.word	0xe28bb00c
   16108:	e3a09000 	.word	0xe3a09000
   1610c:	e79b0109 	.word	0xe79b0109
   16110:	ebfff01a 	.word	0xebfff01a
   16114:	e7ca0009 	.word	0xe7ca0009
   16118:	e2899001 	.word	0xe2899001
   1611c:	e359000a 	.word	0xe359000a
   16120:	1afffff9 	.word	0x1afffff9
   16124:	ea000012 	.word	0xea000012
   16128:	e3550001 	.word	0xe3550001
   1612c:	1a000010 	.word	0x1a000010
   16130:	e1a02004 	.word	0xe1a02004
   16134:	e5941998 	.word	0xe5941998
   16138:	e59d0010 	.word	0xe59d0010
   1613c:	eb00007f 	.word	0xeb00007f
   16140:	e59439a0 	.word	0xe59439a0
   16144:	e5840964 	.word	0xe5840964
   16148:	e5d33000 	.word	0xe5d33000
   1614c:	e3530000 	.word	0xe3530000
   16150:	0a000007 	.word	0x0a000007
   16154:	e1a02004 	.word	0xe1a02004
   16158:	e594199c 	.word	0xe594199c
   1615c:	e2840e96 	.word	0xe2840e96
   16160:	eb000076 	.word	0xeb000076
   16164:	e3500000 	.word	0xe3500000
   16168:	0594399c 	.word	0x0594399c
   1616c:	e5840968 	.word	0xe5840968
   16170:	058439a0 	.word	0x058439a0
   16174:	e2855001 	.word	0xe2855001
   16178:	e3550006 	.word	0xe3550006
   1617c:	e2866002 	.word	0xe2866002
   16180:	e2877002 	.word	0xe2877002
   16184:	1affff04 	.word	0x1affff04
   16188:	e3a00001 	.word	0xe3a00001
   1618c:	e28dd064 	.word	0xe28dd064
   16190:	e8bd8ff0 	.word	0xe8bd8ff0
   16194:	00058afc 	.word	0x00058afc
   16198:	00000020 	.word	0x00000020
   1619c:	0003d5e7 	.word	0x0003d5e7
   161a0:	00058a24 	.word	0x00058a24
   161a4:	0003d5e3 	.word	0x0003d5e3
   161a8:	0003d5e2 	.word	0x0003d5e2
   161ac:	00008ca8 	.word	0x00008ca8
   161b0:	00008c8a 	.word	0x00008c8a
   161b4:	00058880 	.word	0x00058880
   161b8:	00058870 	.word	0x00058870
   161bc:	000586d8 	.word	0x000586d8
   161c0:	0005872c 	.word	0x0005872c
   161c4:	00058724 	.word	0x00058724

000161c8 <_locale_init_l>:
   161c8:	e92d41f0 	.word	0xe92d41f0
   161cc:	e59f511c 	.word	0xe59f511c
   161d0:	e2807c09 	.word	0xe2807c09
   161d4:	e1a04000 	.word	0xe1a04000
   161d8:	e3a0200e 	.word	0xe3a0200e
   161dc:	e3a01000 	.word	0xe3a01000
   161e0:	e1a00007 	.word	0xe1a00007
   161e4:	ebffefbd 	.word	0xebffefbd
   161e8:	e3a03023 	.word	0xe3a03023
   161ec:	e5c43900 	.word	0xe5c43900
   161f0:	e59f30fc 	.word	0xe59f30fc
   161f4:	e08f5005 	.word	0xe08f5005
   161f8:	e7956003 	.word	0xe7956003
   161fc:	e59f10f4 	.word	0xe59f10f4
   16200:	e5963000 	.word	0xe5963000
   16204:	e2845e91 	.word	0xe2845e91
   16208:	e0831001 	.word	0xe0831001
   1620c:	e3a02006 	.word	0xe3a02006
   16210:	e285000a 	.word	0xe285000a
   16214:	ebffefad 	.word	0xebffefad
   16218:	e5d4391a 	.word	0xe5d4391a
   1621c:	e59f00d8 	.word	0xe59f00d8
   16220:	e2833001 	.word	0xe2833001
   16224:	e5c4391a 	.word	0xe5c4391a
   16228:	e59f30d0 	.word	0xe59f30d0
   1622c:	e1a01004 	.word	0xe1a01004
   16230:	e1c730be 	.word	0xe1c730be
   16234:	e283302c 	.word	0xe283302c
   16238:	e1c530b0 	.word	0xe1c530b0
   1623c:	e283300c 	.word	0xe283300c
   16240:	e1c530b2 	.word	0xe1c530b2
   16244:	e2833058 	.word	0xe2833058
   16248:	e1c530b4 	.word	0xe1c530b4
   1624c:	e28330c8 	.word	0xe28330c8
   16250:	e1c530b8 	.word	0xe1c530b8
   16254:	e5963000 	.word	0xe5963000
   16258:	e08f0000 	.word	0xe08f0000
   1625c:	e2832f69 	.word	0xe2832f69
   16260:	e5842938 	.word	0xe5842938
   16264:	e2832fe7 	.word	0xe2832fe7
   16268:	e5842940 	.word	0xe5842940
   1626c:	e2832d45 	.word	0xe2832d45
   16270:	e282201c 	.word	0xe282201c
   16274:	e5842948 	.word	0xe5842948
   16278:	e2832c23 	.word	0xe2832c23
   1627c:	e282200c 	.word	0xe282200c
   16280:	e5843930 	.word	0xe5843930
   16284:	e5842950 	.word	0xe5842950
   16288:	e2832c31 	.word	0xe2832c31
   1628c:	e2833dde 	.word	0xe2833dde
   16290:	e2833030 	.word	0xe2833030
   16294:	e5843958 	.word	0xe5843958
   16298:	e59f3064 	.word	0xe59f3064
   1629c:	e2822020 	.word	0xe2822020
   162a0:	e5842954 	.word	0xe5842954
   162a4:	e79f2003 	.word	0xe79f2003
   162a8:	e59f3058 	.word	0xe59f3058
   162ac:	e08f3003 	.word	0xe08f3003
   162b0:	e5832000 	.word	0xe5832000
   162b4:	e59f3050 	.word	0xe59f3050
   162b8:	e79f2003 	.word	0xe79f2003
   162bc:	e59f304c 	.word	0xe59f304c
   162c0:	e08f3003 	.word	0xe08f3003
   162c4:	e5832000 	.word	0xe5832000
   162c8:	e59f3044 	.word	0xe59f3044
   162cc:	e79f2003 	.word	0xe79f2003
   162d0:	e59f3040 	.word	0xe59f3040
   162d4:	e08f3003 	.word	0xe08f3003
   162d8:	e5832000 	.word	0xe5832000
   162dc:	e59f3038 	.word	0xe59f3038
   162e0:	e08f3003 	.word	0xe08f3003
   162e4:	e584394c 	.word	0xe584394c
   162e8:	e8bd41f0 	.word	0xe8bd41f0
   162ec:	eafffde2 	.word	0xeafffde2
   162f0:	000583a4 	.word	0x000583a4
   162f4:	00000020 	.word	0x00000020
   162f8:	0003d57a 	.word	0x0003d57a
   162fc:	0000891c 	.word	0x0000891c
   16300:	0000096c 	.word	0x0000096c
   16304:	00058508 	.word	0x00058508
   16308:	000584fc 	.word	0x000584fc
   1630c:	00058558 	.word	0x00058558
   16310:	0005854c 	.word	0x0005854c
   16314:	0005854c 	.word	0x0005854c
   16318:	00058540 	.word	0x00058540
   1631c:	00008874 	.word	0x00008874

00016320 <_locale_init>:
   16320:	e59f3010 	.word	0xe59f3010
   16324:	e59f2010 	.word	0xe59f2010
   16328:	e08f3003 	.word	0xe08f3003
   1632c:	e7933002 	.word	0xe7933002
   16330:	e5930000 	.word	0xe5930000
   16334:	eaffffa3 	.word	0xeaffffa3
   16338:	00058270 	.word	0x00058270
   1633c:	000000a8 	.word	0x000000a8

00016340 <__locale_mbrtowc_l>:
   16340:	e92d4010 	.word	0xe92d4010
   16344:	e1a04001 	.word	0xe1a04001
   16348:	e5d21920 	.word	0xe5d21920
   1634c:	e24dd018 	.word	0xe24dd018
   16350:	e3510001 	.word	0xe3510001
   16354:	1a00000c 	.word	0x1a00000c
   16358:	e3a03000 	.word	0xe3a03000
   1635c:	e58d3010 	.word	0xe58d3010
   16360:	e28d3010 	.word	0xe28d3010
   16364:	e58d3000 	.word	0xe58d3000
   16368:	e58d1004 	.word	0xe58d1004
   1636c:	e3e03000 	.word	0xe3e03000
   16370:	e28d200c 	.word	0xe28d200c
   16374:	e58d400c 	.word	0xe58d400c
   16378:	eb0004e7 	.word	0xeb0004e7
   1637c:	e3500001 	.word	0xe3500001
   16380:	059d000c 	.word	0x059d000c
   16384:	00640000 	.word	0x00640000
   16388:	ea000017 	.word	0xea000017
   1638c:	e1a0c000 	.word	0xe1a0c000
   16390:	e5d40000 	.word	0xe5d40000
   16394:	e350007f 	.word	0xe350007f
   16398:	e58c0000 	.word	0xe58c0000
   1639c:	8a000002 	.word	0x8a000002
   163a0:	e2900000 	.word	0xe2900000
   163a4:	13a00001 	.word	0x13a00001
   163a8:	ea00000f 	.word	0xea00000f
   163ac:	e5d23920 	.word	0xe5d23920
   163b0:	e3530002 	.word	0xe3530002
   163b4:	13e00000 	.word	0x13e00000
   163b8:	1a00000b 	.word	0x1a00000b
   163bc:	e592393c 	.word	0xe592393c
   163c0:	e2400080 	.word	0xe2400080
   163c4:	e7d331a0 	.word	0xe7d331a0
   163c8:	e2000007 	.word	0xe2000007
   163cc:	e0800183 	.word	0xe0800183
   163d0:	e5923940 	.word	0xe5923940
   163d4:	e1a00080 	.word	0xe1a00080
   163d8:	e19330b0 	.word	0xe19330b0
   163dc:	e3530000 	.word	0xe3530000
   163e0:	13a00001 	.word	0x13a00001
   163e4:	03e00000 	.word	0x03e00000
   163e8:	e58c3000 	.word	0xe58c3000
   163ec:	e28dd018 	.word	0xe28dd018
   163f0:	e8bd8010 	.word	0xe8bd8010
   163f4:	e3500000 	.word	0xe3500000
   163f8:	e92d41f0 	.word	0xe92d41f0
   163fc:	e1a07001 	.word	0xe1a07001
   16400:	159f30fc 	.word	0x159f30fc
   16404:	108f3003 	.word	0x108f3003
   16408:	15830000 	.word	0x15830000
   1640c:	e59f30f4 	.word	0xe59f30f4
   16410:	e08f3003 	.word	0xe08f3003
   16414:	e5837000 	.word	0xe5837000
   16418:	e3d23ffe 	.word	0xe3d23ffe
   1641c:	059f30e8 	.word	0x059f30e8
   16420:	01a021a2 	.word	0x01a021a2
   16424:	008f3003 	.word	0x008f3003
   16428:	05832000 	.word	0x05832000
   1642c:	e59f30dc 	.word	0xe59f30dc
   16430:	e08f3003 	.word	0xe08f3003
   16434:	e5934004 	.word	0xe5934004
   16438:	e3740001 	.word	0xe3740001
   1643c:	13a06002 	.word	0x13a06002
   16440:	1a000017 	.word	0x1a000017
   16444:	e3a05002 	.word	0xe3a05002
   16448:	e3170008 	.word	0xe3170008
   1644c:	08bd81f0 	.word	0x08bd81f0
   16450:	e3a02000 	.word	0xe3a02000
   16454:	e1a01005 	.word	0xe1a01005
   16458:	e3a00001 	.word	0xe3a00001
   1645c:	eb00123b 	.word	0xeb00123b
   16460:	e59f30ac 	.word	0xe59f30ac
   16464:	e08f3003 	.word	0xe08f3003
   16468:	e3700001 	.word	0xe3700001
   1646c:	e1a04000 	.word	0xe1a04000
   16470:	e5830004 	.word	0xe5830004
   16474:	08bd81f0 	.word	0x08bd81f0
   16478:	e3a02001 	.word	0xe3a02001
   1647c:	e3a01002 	.word	0xe3a01002
   16480:	ebfffb53 	.word	0xebfffb53
   16484:	e3a01003 	.word	0xe3a01003
   16488:	e1a00004 	.word	0xe1a00004
   1648c:	ebfffb50 	.word	0xebfffb50
   16490:	e3a01004 	.word	0xe3a01004
   16494:	e1a06005 	.word	0xe1a06005
   16498:	e3802b02 	.word	0xe3802b02
   1649c:	e1a00004 	.word	0xe1a00004
   164a0:	ebfffb4b 	.word	0xebfffb4b
   164a4:	e59f506c 	.word	0xe59f506c
   164a8:	e08f5005 	.word	0xe08f5005
   164ac:	e5953004 	.word	0xe5953004
   164b0:	e3530000 	.word	0xe3530000
   164b4:	18bd81f0 	.word	0x18bd81f0
   164b8:	e59f105c 	.word	0xe59f105c
   164bc:	e3a02010 	.word	0xe3a02010
   164c0:	e08f1001 	.word	0xe08f1001
   164c4:	e1a00004 	.word	0xe1a00004
   164c8:	eb0011c0 	.word	0xeb0011c0
   164cc:	e3700001 	.word	0xe3700001
   164d0:	13a03001 	.word	0x13a03001
   164d4:	e1a08000 	.word	0xe1a08000
   164d8:	15853004 	.word	0x15853004
   164dc:	18bd81f0 	.word	0x18bd81f0
   164e0:	e1a00004 	.word	0xe1a00004
   164e4:	ebfff78d 	.word	0xebfff78d
   164e8:	e59f3030 	.word	0xe59f3030
   164ec:	e3560002 	.word	0xe3560002
   164f0:	e08f3003 	.word	0xe08f3003
   164f4:	e5838004 	.word	0xe5838004
   164f8:	e3a05001 	.word	0xe3a05001
   164fc:	18bd81f0 	.word	0x18bd81f0
   16500:	eaffffd0 	.word	0xeaffffd0
   16504:	000583bc 	.word	0x000583bc
   16508:	0005a488 	.word	0x0005a488
   1650c:	00058390 	.word	0x00058390
   16510:	00058384 	.word	0x00058384
   16514:	00058350 	.word	0x00058350
   16518:	0005a3f0 	.word	0x0005a3f0
   1651c:	000086ce 	.word	0x000086ce
   16520:	000582c4 	.word	0x000582c4

00016524 <__GI_openlog>:
   16524:	e59f306c 	.word	0xe59f306c
   16528:	e92d41f0 	.word	0xe92d41f0
   1652c:	e59f5068 	.word	0xe59f5068
   16530:	e1a08002 	.word	0xe1a08002
   16534:	e59f2064 	.word	0xe59f2064
   16538:	e08f3003 	.word	0xe08f3003
   1653c:	e7933002 	.word	0xe7933002
   16540:	e24dd018 	.word	0xe24dd018
   16544:	e08f5005 	.word	0xe08f5005
   16548:	e2855008 	.word	0xe2855008
   1654c:	e28d4008 	.word	0xe28d4008
   16550:	e1a02005 	.word	0xe1a02005
   16554:	e1a06000 	.word	0xe1a06000
   16558:	e1a07001 	.word	0xe1a07001
   1655c:	e1a00004 	.word	0xe1a00004
   16560:	e1a01003 	.word	0xe1a01003
   16564:	e58d3004 	.word	0xe58d3004
   16568:	ebfff835 	.word	0xebfff835
   1656c:	e1a00005 	.word	0xe1a00005
   16570:	ebfff82f 	.word	0xebfff82f
   16574:	e1a02008 	.word	0xe1a02008
   16578:	e1a01007 	.word	0xe1a01007
   1657c:	e1a00006 	.word	0xe1a00006
   16580:	ebffff9b 	.word	0xebffff9b
   16584:	e3a01001 	.word	0xe3a01001
   16588:	e1a00004 	.word	0xe1a00004
   1658c:	ebfff82e 	.word	0xebfff82e
   16590:	e28dd018 	.word	0xe28dd018
   16594:	e8bd81f0 	.word	0xe8bd81f0
   16598:	00058060 	.word	0x00058060
   1659c:	0005a354 	.word	0x0005a354
   165a0:	00000050 	.word	0x00000050

000165a4 <__GI_vsyslog>:
   165a4:	e92d4ff0 	.word	0xe92d4ff0
   165a8:	e59f33ac 	.word	0xe59f33ac
   165ac:	e24dde42 	.word	0xe24dde42
   165b0:	e24dd00c 	.word	0xe24dd00c
   165b4:	e58d2008 	.word	0xe58d2008
   165b8:	e59f23a0 	.word	0xe59f23a0
   165bc:	e08f3003 	.word	0xe08f3003
   165c0:	e1a09001 	.word	0xe1a09001
   165c4:	e7931002 	.word	0xe7931002
   165c8:	e1a04000 	.word	0xe1a04000
   165cc:	e5912000 	.word	0xe5912000
   165d0:	e58d100c 	.word	0xe58d100c
   165d4:	e58d2424 	.word	0xe58d2424
   165d8:	e3c02fff 	.word	0xe3c02fff
   165dc:	e3c22003 	.word	0xe3c22003
   165e0:	e3520000 	.word	0xe3520000
   165e4:	1a0000d3 	.word	0x1a0000d3
   165e8:	e59f2374 	.word	0xe59f2374
   165ec:	ebfff9b7 	.word	0xebfff9b7
   165f0:	e59f6370 	.word	0xe59f6370
   165f4:	e79f2002 	.word	0xe79f2002
   165f8:	e08f6006 	.word	0xe08f6006
   165fc:	e790b002 	.word	0xe790b002
   16600:	e59f2364 	.word	0xe59f2364
   16604:	e28d5018 	.word	0xe28d5018
   16608:	e7933002 	.word	0xe7933002
   1660c:	e2867008 	.word	0xe2867008
   16610:	e245a004 	.word	0xe245a004
   16614:	e1a01003 	.word	0xe1a01003
   16618:	e1a02007 	.word	0xe1a02007
   1661c:	e1a0000a 	.word	0xe1a0000a
   16620:	e58d3004 	.word	0xe58d3004
   16624:	ebfff806 	.word	0xebfff806
   16628:	e1a00007 	.word	0xe1a00007
   1662c:	ebfff800 	.word	0xebfff800
   16630:	e59f2338 	.word	0xe59f2338
   16634:	e2043007 	.word	0xe2043007
   16638:	e08f2002 	.word	0xe08f2002
   1663c:	e5921008 	.word	0xe5921008
   16640:	e3a00001 	.word	0xe3a00001
   16644:	e0113310 	.word	0xe0113310
   16648:	0a0000b7 	.word	0x0a0000b7
   1664c:	e5923004 	.word	0xe5923004
   16650:	e3530000 	.word	0xe3530000
   16654:	ba000002 	.word	0xba000002
   16658:	e5963004 	.word	0xe5963004
   1665c:	e3530000 	.word	0xe3530000
   16660:	1a000007 	.word	0x1a000007
   16664:	e59f3308 	.word	0xe59f3308
   16668:	e3a00000 	.word	0xe3a00000
   1666c:	e79f2003 	.word	0xe79f2003
   16670:	e59f3300 	.word	0xe59f3300
   16674:	e1a02182 	.word	0xe1a02182
   16678:	e79f1003 	.word	0xe79f1003
   1667c:	e3811008 	.word	0xe3811008
   16680:	ebffff5b 	.word	0xebffff5b
   16684:	e3140ffe 	.word	0xe3140ffe
   16688:	059f32ec 	.word	0x059f32ec
   1668c:	008f3003 	.word	0x008f3003
   16690:	05933000 	.word	0x05933000
   16694:	01844183 	.word	0x01844183
   16698:	e2455008 	.word	0xe2455008
   1669c:	e1a00005 	.word	0xe1a00005
   166a0:	eb001373 	.word	0xeb001373
   166a4:	e1a00005 	.word	0xe1a00005
   166a8:	eb000125 	.word	0xeb000125
   166ac:	e59f12cc 	.word	0xe59f12cc
   166b0:	e28d8028 	.word	0xe28d8028
   166b4:	e2487004 	.word	0xe2487004
   166b8:	e1a02004 	.word	0xe1a02004
   166bc:	e08f1001 	.word	0xe08f1001
   166c0:	e2803004 	.word	0xe2803004
   166c4:	e1a00007 	.word	0xe1a00007
   166c8:	eb000627 	.word	0xeb000627
   166cc:	e59f32b0 	.word	0xe59f32b0
   166d0:	e79f4003 	.word	0xe79f4003
   166d4:	e0876000 	.word	0xe0876000
   166d8:	e1a00004 	.word	0xe1a00004
   166dc:	ebffeea7 	.word	0xebffeea7
   166e0:	e3500d0f 	.word	0xe3500d0f
   166e4:	2a000005 	.word	0x2a000005
   166e8:	e59f1298 	.word	0xe59f1298
   166ec:	e1a02004 	.word	0xe1a02004
   166f0:	e08f1001 	.word	0xe08f1001
   166f4:	e1a00006 	.word	0xe1a00006
   166f8:	eb00061b 	.word	0xeb00061b
   166fc:	ea000003 	.word	0xea000003
   16700:	e59f1284 	.word	0xe59f1284
   16704:	e1a00006 	.word	0xe1a00006
   16708:	e08f1001 	.word	0xe08f1001
   1670c:	eb000616 	.word	0xeb000616
   16710:	e59f3278 	.word	0xe59f3278
   16714:	e0865000 	.word	0xe0865000
   16718:	e08f3003 	.word	0xe08f3003
   1671c:	e5933000 	.word	0xe5933000
   16720:	e3130001 	.word	0xe3130001
   16724:	0a000006 	.word	0x0a000006
   16728:	eb0011e2 	.word	0xeb0011e2
   1672c:	e59f1260 	.word	0xe59f1260
   16730:	e08f1001 	.word	0xe08f1001
   16734:	e1a02000 	.word	0xe1a02000
   16738:	e1a00005 	.word	0xe1a00005
   1673c:	eb00060a 	.word	0xeb00060a
   16740:	e0855000 	.word	0xe0855000
   16744:	e1a04005 	.word	0xe1a04005
   16748:	e3a0303a 	.word	0xe3a0303a
   1674c:	e4c43002 	.word	0xe4c43002
   16750:	e3a03020 	.word	0xe3a03020
   16754:	e5c53001 	.word	0xe5c53001
   16758:	e59f3238 	.word	0xe59f3238
   1675c:	ebfff95b 	.word	0xebfff95b
   16760:	e1a02009 	.word	0xe1a02009
   16764:	e79f3003 	.word	0xe79f3003
   16768:	e780b003 	.word	0xe780b003
   1676c:	e2883ffe 	.word	0xe2883ffe
   16770:	e2838003 	.word	0xe2838003
   16774:	e064b008 	.word	0xe064b008
   16778:	e58d3004 	.word	0xe58d3004
   1677c:	e1a0100b 	.word	0xe1a0100b
   16780:	e59d3008 	.word	0xe59d3008
   16784:	e1a00004 	.word	0xe1a00004
   16788:	eb000602 	.word	0xeb000602
   1678c:	e0949000 	.word	0xe0949000
   16790:	23a03001 	.word	0x23a03001
   16794:	33a03000 	.word	0x33a03000
   16798:	e1590008 	.word	0xe1590008
   1679c:	23833001 	.word	0x23833001
   167a0:	e3530000 	.word	0xe3530000
   167a4:	0a000013 	.word	0x0a000013
   167a8:	e24b200c 	.word	0xe24b200c
   167ac:	e1a01004 	.word	0xe1a01004
   167b0:	e285000e 	.word	0xe285000e
   167b4:	eb000f69 	.word	0xeb000f69
   167b8:	e59f11dc 	.word	0xe59f11dc
   167bc:	e3a0200c 	.word	0xe3a0200c
   167c0:	e08f1001 	.word	0xe08f1001
   167c4:	e2811010 	.word	0xe2811010
   167c8:	e1a00004 	.word	0xe1a00004
   167cc:	ebffee3f 	.word	0xebffee3f
   167d0:	e1590004 	.word	0xe1590004
   167d4:	259d3004 	.word	0x259d3004
   167d8:	22839002 	.word	0x22839002
   167dc:	2a000005 	.word	0x2a000005
   167e0:	e1590008 	.word	0xe1590008
   167e4:	2a000003 	.word	0x2a000003
   167e8:	e5d93000 	.word	0xe5d93000
   167ec:	e3530000 	.word	0xe3530000
   167f0:	12899001 	.word	0x12899001
   167f4:	1afffff9 	.word	0x1afffff9
   167f8:	e59f31a0 	.word	0xe59f31a0
   167fc:	e08f3003 	.word	0xe08f3003
   16800:	e5933000 	.word	0xe5933000
   16804:	e3130020 	.word	0xe3130020
   16808:	0a000006 	.word	0x0a000006
   1680c:	e3a0300a 	.word	0xe3a0300a
   16810:	e0662009 	.word	0xe0662009
   16814:	e5c93000 	.word	0xe5c93000
   16818:	e2822001 	.word	0xe2822001
   1681c:	e1a01006 	.word	0xe1a01006
   16820:	e3a00002 	.word	0xe3a00002
   16824:	ebfff6e1 	.word	0xebfff6e1
   16828:	e59f5174 	.word	0xe59f5174
   1682c:	e3a03000 	.word	0xe3a03000
   16830:	e08f5005 	.word	0xe08f5005
   16834:	e5c93000 	.word	0xe5c93000
   16838:	e5953004 	.word	0xe5953004
   1683c:	e3530000 	.word	0xe3530000
   16840:	ba000020 	.word	0xba000020
   16844:	e59f815c 	.word	0xe59f815c
   16848:	e1a04007 	.word	0xe1a04007
   1684c:	e2896001 	.word	0xe2896001
   16850:	e3a03901 	.word	0xe3a03901
   16854:	e0642006 	.word	0xe0642006
   16858:	e1a01004 	.word	0xe1a01004
   1685c:	e5950004 	.word	0xe5950004
   16860:	eb001109 	.word	0xeb001109
   16864:	e3500000 	.word	0xe3500000
   16868:	aa000012 	.word	0xaa000012
   1686c:	e79f3008 	.word	0xe79f3008
   16870:	ebfff916 	.word	0xebfff916
